

Name











BOOTMEM_SIZE
_Z10dump_mutexP7mutex_t
_Z10free_spaceP7space_t
_Z10full_flushv
_Z10get_choicePKcS0_c
_Z10get_threadPKc
_Z10init_hellov
_Z10init_mutexv
_Z10update_ldtP5tcb_t
_Z11halt_threadP5tcb_tPFvvE
_Z11ia32_do_irqmPFvvE
_Z11idle_threadv
_Z11kdb_get_tcbv
_Z11kdebug_initv
_Z11print_dec64yibbbc
_Z11print_hex64yiibb
_Z11print_mutexmmmb
_Z11print_spacemmmb
_Z11range_flushv
_Z11restart_ipcv
_Z11switch_fromP5tcb_tPFvvE
_Z11tb_allocatemPm
_Z11valid_space9spaceid_t
_Z12activate_gdtv
_Z12allocate_tcb10threadid_t
_Z12fwphy_rddataPvj
_Z12fwphy_wrdataPvmm
_Z12generic_initv
_Z12getc_dbg1394b
_Z12ia32_ack_irqm
_Z12init_consolev
_Z12init_dbg1394v
_Z12kdebug_entryPv
_Z12memdump_loopP7space_tPv
_Z12mutex_wakeupv
_Z12print_headerv
_Z12print_stringPKcii
_Z12putc_dbg1394c
_Z12tb_log_eventm
_Z12tb_log_tracemPcz
_Z12tb_reply_irqv
_Z13do_magic_readii
_Z13finish_do_ipcv
_Z13ia32_dump_ldtP14ia32_segdesc_t
_Z13ia32_dump_segP14ia32_segdesc_tib
_Z13ia32_mask_irqm
_Z13init_clistidsv
_Z13init_spaceidsv
_Z13pci_read_byteiiii
_Z13print_hex_sepmiPKc
_Z13resume_threadP5tcb_tPFvvE
_Z14allocate_space9spaceid_tP7clist_t
_Z14do_magic_writeiii
_Z14exc_gp_wrapperv
_Z14get_key_stringcPKc
_Z14pcireg_cfgreadiiiii
_Z14print_cmd_pathP11cmd_group_t
_Z14return_successv
_Z14tb_irq_controlb
_Z14thread_startupv
_Z15check_bus_resetv
_Z15exc_nmi_wrapperv
_Z15ia32_dump_frameP21ia32_exceptionframe_t
_Z15ia32_unmask_irqm
_Z15init_root_clistv
_Z15pcireg_cfgwriteiiiiii
_Z16__assert_failurePKc
_Z16bus_space_read_4Pvj
_Z16handle_bus_resetPv
_Z16handle_ipc_errorv
_Z16init_all_threadsv
_Z16init_tracebufferv
_Z16memory_copy_loopv
_Z16range_flush_fullv
_Z17bus_space_write_4Pvjm
_Z17exc_catch_wrapperv
_Z17exc_debug_wrapperv
_Z17finish_kernel_ipcv
_Z17ia32_handle_breakP21ia32_exceptionframe_t
_Z17ia32_handle_debugv
_Z17ia32_init_intctrlv
_Z17init_kernel_spacev
_Z17init_root_serversv
_Z18create_idle_threadv
_Z18create_root_server10threadid_t7fpage_tm
_Z18ia32_is_masked_irqm
_Z18init_tcb_allocatorv
_Z18kdb_breakin_enablev
_Z18send_exception_ipcP21ia32_exceptionframe_tmPFvvE
_Z19finish_sys_schedulev
_Z19halt_current_threadPFvvE
_Z19hybrid_mutex_wakeupv
_Z19init_kernel_threadsv
_Z19is_breakin_disabledv
_Z19kdb_breakin_disablev
_Z19kdb_breakin_handleri
_Z19kdb_set_object_name13object_type_emPKc
_Z19memory_copy_recoverv
_Z19set_thread_handlersP5tcb_t10threadid_tS1_S1_
_Z20finish_exception_ipcv
_Z20finish_perform_exregv
_Z20get_ptab_dump_rangesPPvPmPN7pgent_t8pgsize_eE
_Z20kdebug_check_breakinv
_Z20thread_switch_helperv
_Z21acquire_read_lock_tcbP5tcb_t
_Z21add_init_root_mappingPv
_Z21exc_fpu_fault_wrapperv
_Z21exc_pagefault_wrapperv
_Z21hw_irq_common_wrapperv
_Z21ia32_mask_and_ack_irqm
_Z21return_ipc_error_recvP5tcb_tS0_S0_m
_Z21return_ipc_error_sendP5tcb_tS0_S0_m
_Z22enqueue_tcb_and_returnP5tcb_tS0_PFvvE
_Z22exc_breakpoint_wrapperv
_Z22exc_simd_fault_wrapperv
_Z22exc_user_timer_wrapperv
_Z22setup_initial_mappingsP7space_t
_Z23ia32_init_local_intctrlv
_Z23timer_interrupt_wrapperv
_Z24abort_sys_thread_controlv
_Z24exc_catch_common_wrapperv
_Z24return_failure_pagefaultv
_Z25exc_nomath_coproc_wrapperv
_Z25finish_exchange_registersv
_Z25finish_sys_thread_controlv
_Z26exc_invalid_opcode_wrapperv
_Z27lookup_tcb_by_handle_lockedm
_Z4getcb
_Z4putcc
_Z5DELAYi
_Z7__panicv
_Z7get_decPKcmS0_
_Z7get_hexPKcmS0_
_Z7get_tcbPv
_Z7memdumpP7space_tPv
_Z7set_ldtP5tcb_tm14ia32_segdesc_t
_Z7str2intPKciPmm
_Z7strncmpPcS_i
_Z8dump_tcbP5tcb_t
_Z8free_tcbP5tcb_t
_Z9do_printfPKcPc
_Z9dump_utcbP5tcb_t
_Z9get_spacePKc
_Z9iret_pathv
_Z9next_linkP5tcb_t
_Z9print_decmibbbc
_Z9print_hexmiibb
_Z9print_tcbmmmb
_Z9print_tid10threadid_tmmb
_Z9setup_gdtR10ia32_tss_tt
_Z9switch_toP5tcb_tS0_
_ZN10endpoint_t12dequeue_recvEP5tcb_t
_ZN10endpoint_t12dequeue_sendEP5tcb_t
_ZN10endpoint_t12enqueue_recvEP5tcb_t
_ZN10endpoint_t12enqueue_sendEP5tcb_t
_ZN10endpoint_t4initEP5tcb_t
_ZN11cmd_group_t15interact_by_keyEv
_ZN11cmd_group_t19interact_by_commandEv
_ZN11cmd_group_t8interactEPS_Pc
_ZN11macro_set_t3getEm
_ZN11macro_set_t4nextEv
_ZN11macro_set_t4sizeEv
_ZN11macro_set_t5printEv
_ZN11macro_set_t5resetEv
_ZN11scheduler_t11do_scheduleEP5tcb_tmmm
_ZN11scheduler_t12current_timeE
_ZN11scheduler_t13fast_scheduleEP5tcb_tNS_20fast_schedule_type_eES1_PFvvEm
_ZN11scheduler_t14smt_rescheduleEP5tcb_t
_ZN11scheduler_t16end_of_timesliceEP5tcb_t
_ZN11scheduler_t17set_active_threadEP5tcb_tS1_
_ZN11scheduler_t20get_highest_priorityEv
_ZN11scheduler_t22set_effective_priorityEP5tcb_ti
_ZN11scheduler_t26release_and_reschedule_tcbEP5tcb_t
_ZN11scheduler_t4initEb
_ZN11scheduler_t5startEm
_ZN11scheduler_t5yieldEP5tcb_tS1_PFvvE
_ZN11scheduler_t8scheduleEP5tcb_tPFvvEm
_ZN11syncpoint_t13is_deadlockedEP5tcb_tPiS2_
_ZN11syncpoint_t14become_donateeEP5tcb_t
_ZN11syncpoint_t15dequeue_blockedEP5tcb_t
_ZN11syncpoint_t15enqueue_blockedEP5tcb_t
_ZN11syncpoint_t15release_donateeEv
_ZN11syncpoint_t15report_deadlockEP5tcb_tii
_ZN11syncpoint_t18enqueue_tcb_sortedEP5tcb_t
_ZN11syncpoint_t25propagate_priority_changeEv
_ZN11syncpoint_t27propagate_priority_increaseEi
_ZN11syncpoint_t4initEP5tcb_t
_ZN11syncpoint_t5blockEP5tcb_t
_ZN11syncpoint_t7refreshEP5tcb_t
_ZN11syncpoint_t7unblockEP5tcb_t
_ZN12mutex_user_t10get_holderEP5tcb_t
_ZN12mutex_user_t10set_holderEP5tcb_tmb
_ZN12mutex_user_t17atomic_set_holderEP5tcb_tm
_ZN12mutex_user_t20atomic_set_contendedEP5tcb_t
_ZN12mutex_user_t8set_freeEP5tcb_t
_ZN12prio_queue_t17set_base_priorityEP5tcb_ti
_ZN12prio_queue_t22set_effective_priorityEP5tcb_ti
_ZN12prio_queue_t4initEv
_ZN12prio_queue_t7dequeueEP5tcb_t
_ZN12prio_queue_t7enqueueEP5tcb_t
_ZN13small_alloc_t10free_blockEP12kmem_group_tP19small_alloc_block_t
_ZN13small_alloc_t14allocate_blockEP12kmem_group_t
_ZN13small_alloc_t4freeEPv
_ZN13small_alloc_t4initEP12kmem_group_tmm
_ZN13small_alloc_t8allocateEv
_ZN15PlatformSupport14deliver_notifyEPvmPFvvE
_ZN15PlatformSupport17lookup_tcb_lockedE10threadid_t
_ZN15PlatformSupport21add_mapping_to_kernelEPvS0_NS_8pgsize_eENS_5rwx_eEbNS_11memattrib_eE
_ZN15PlatformSupport32scheduler_handle_timer_interruptEbPFvvE
_ZN15PlatformSupport8mem_freeEPvm
_ZN15PlatformSupport8scheduleEPFvvE
_ZN15PlatformSupport9mem_allocEmb
_ZN15cap_reference_t13add_referenceEP5cap_tS1_
_ZN15cap_reference_t13add_referenceEP5tcb_tP5cap_t
_ZN15cap_reference_t16remove_referenceEP5cap_tS1_
_ZN15cap_reference_t16remove_referenceEP5tcb_tP5cap_t
_ZN15cap_reference_t18cap_reference_lockE
_ZN15cap_reference_t20invalidate_referenceEP5cap_t
_ZN15cap_reference_t20invalidate_referenceEP5tcb_t
_ZN15generic_space_t10read_fpageE7fpage_tP11phys_desc_tP11perm_desc_t
_ZN15generic_space_t11unmap_fpageE7fpage_tb
_ZN15generic_space_t12readmem_physEPvS0_
_ZN15generic_space_t13allocate_utcbEP5tcb_t
_ZN15generic_space_t14free_utcb_pageEP7pgent_tNS0_8pgsize_eEPv
_ZN15generic_space_t14lookup_mappingEPvPP7pgent_tPNS1_8pgsize_eE
_ZN15generic_space_t16handle_pagefaultEPvS0_NS_8access_eEbPFvvE
_ZN15generic_space_t17init_cpu_mappingsEt
_ZN15generic_space_t17sync_kernel_spaceEPv
_ZN15generic_space_t19check_utcb_locationEm
_ZN15generic_space_t19free_page_directoryEv
_ZN15generic_space_t20init_kernel_mappingsEv
_ZN15generic_space_t21free_utcb_area_memoryEv
_ZN15generic_space_t23allocate_page_directoryEv
_ZN15generic_space_t4freeEv
_ZN15generic_space_t4initE7fpage_t
_ZN15generic_space_t7readmemEPvPm
_ZN15generic_space_t8activateEP5tcb_t
_ZN15generic_space_t9arch_freeEv
_ZN15generic_space_t9free_utcbEP6utcb_t
_ZN15generic_space_t9map_fpageE11phys_desc_t7fpage_t
_ZN18thread_resources_t22ia32_no_math_exceptionEP5tcb_t
_ZN18thread_resources_t4dumpEP5tcb_t
_ZN18thread_resources_t4freeEP5tcb_t
_ZN18thread_resources_t4initEP5tcb_t
_ZN18thread_resources_t5purgeEP5tcb_t
_ZN5idt_t10init_idt_tEv
_ZN5idt_t12add_int_gateEmPFvvE
_ZN5idt_t13add_trap_gateEmPFvvE
_ZN5idt_t16add_syscall_gateEmPFvvE
_ZN5idt_t8activateEv
_ZN5kdb_t10cmd__abortEP11cmd_group_t
_ZN5kdb_t10cmd__priorEP11cmd_group_t
_ZN5kdb_t10cmd_configEP11cmd_group_t
_ZN5kdb_t10cmd_rebootEP11cmd_group_t
_ZN5kdb_t11cmd_dumpvgaEP11cmd_group_t
_ZN5kdb_t11cmd_memdumpEP11cmd_group_t
_ZN5kdb_t11cmd_tb_dumpEP11cmd_group_t
_ZN5kdb_t11cmd_tb_infoEP11cmd_group_t
_ZN5kdb_t11cmd_tp_confEP11cmd_group_t
_ZN5kdb_t11cmd_tp_listEP11cmd_group_t
_ZN5kdb_t12cmd_dump_ldtEP11cmd_group_t
_ZN5kdb_t12cmd_show_tcbEP11cmd_group_t
_ZN5kdb_t12cmd_tb_resetEP11cmd_group_t
_ZN5kdb_t12cmd_tp_resetEP11cmd_group_t
_ZN5kdb_t12cmd_wordsizeEP11cmd_group_t
_ZN5kdb_t13cmd_dump_msrsEP11cmd_group_t
_ZN5kdb_t13cmd_dump_ptabEP11cmd_group_t
_ZN5kdb_t13cmd_tp_enableEP11cmd_group_t
_ZN5kdb_t14cmd_branchstepEP11cmd_group_t
_ZN5kdb_t14cmd_breakpointEP11cmd_group_t
_ZN5kdb_t14cmd_dump_frameEP11cmd_group_t
_ZN5kdb_t14cmd_kmem_statsEP11cmd_group_t
_ZN5kdb_t14cmd_show_clistEP11cmd_group_t
_ZN5kdb_t14cmd_show_readyEP11cmd_group_t
_ZN5kdb_t14cmd_show_spaceEP11cmd_group_t
_ZN5kdb_t14cmd_singlestepEP11cmd_group_t
_ZN5kdb_t14cmd_statisticsEP11cmd_group_t
_ZN5kdb_t14cmd_tb_logmaskEP11cmd_group_t
_ZN5kdb_t14cmd_tid_formatEP11cmd_group_t
_ZN5kdb_t14cmd_tp_disableEP11cmd_group_t
_ZN5kdb_t15cmd_list_clistsEP11cmd_group_t
_ZN5kdb_t15cmd_list_spacesEP11cmd_group_t
_ZN5kdb_t15cmd_mode_switchEP11cmd_group_t
_ZN5kdb_t15cmd_show_tcbextEP11cmd_group_t
_ZN5kdb_t15cmd_tp_conf_allEP11cmd_group_t
_ZN5kdb_t15cmd_tracebufferEP11cmd_group_t
_ZN5kdb_t15cmd_tracepointsEP11cmd_group_t
_ZN5kdb_t16cmd_memdump_physEP11cmd_group_t
_ZN5kdb_t16cmd_show_mutexesEP11cmd_group_t
_ZN5kdb_t17cmd_show_ctrlregsEP11cmd_group_t
_ZN5kdb_t18cmd_memdump_remoteEP11cmd_group_t
_ZN5kdb_t18cmd_show_dep_graphEP11cmd_group_t
_ZN5kdb_t22cmd_dump_current_frameEP11cmd_group_t
_ZN5kdb_t3preEv
_ZN5kdb_t4initEv
_ZN5kdb_t4postEv
_ZN5kdb_t5entryEPv
_ZN5kdb_t6cmd_goEP11cmd_group_t
_ZN5kdb_t7cmd_cpuEP11cmd_group_t
_ZN5kdb_t7cmd_gdtEP11cmd_group_t
_ZN5kdb_t7cmd_idtEP11cmd_group_t
_ZN5kdb_t7cmd_nmiEP11cmd_group_t
_ZN5kdb_t8cmd_apicEP11cmd_group_t
_ZN5kdb_t8cmd_archEP11cmd_group_t
_ZN5kdb_t9cmd__helpEP11cmd_group_t
_ZN5kdb_t9cmd_portsEP11cmd_group_t
_ZN5kdb_t9cmd_resetEP11cmd_group_t
_ZN5tcb_t10delete_tcbEv
_ZN5tcb_t10save_stateEm
_ZN5tcb_t11cancel_ipcsEv
_ZN5tcb_t13restore_stateEm
_ZN5tcb_t15release_mutexesEv
_ZN5tcb_t17remove_dependencyEv
_ZN5tcb_t18send_pagefault_ipcEPvS0_N15generic_space_t8access_eEPFvvE
_ZN5tcb_t20create_kernel_threadE10threadid_tP6utcb_t
_ZN5tcb_t20create_startup_stackEPFvvE
_ZN5tcb_t23calc_effective_priorityEv
_ZN5tcb_t4initE10threadid_t
_ZN5tcb_t6unwindEPS_
_ZN5tcb_t8activateEPFvvE
_ZN6kmem_t4freeEPvm
_ZN6kmem_t4initEPvS0_
_ZN6kmem_t5allocEmb
_ZN7clist_t10lookup_capE10threadid_t
_ZN7clist_t11add_ipc_capE10threadid_tP5tcb_t
_ZN7clist_t14add_thread_capE10threadid_tP5tcb_t
_ZN7clist_t14remove_ipc_capE10threadid_t
_ZN7clist_t17remove_thread_capE10threadid_t
_ZN7clist_t21lookup_ipc_cap_lockedE10threadid_t
_ZN7clist_t24lookup_thread_cap_lockedE10threadid_tb
_ZN7clist_t26lookup_thread_cap_unlockedE10threadid_t
_ZN7clist_t8is_emptyEv
_ZN7mutex_t10set_holderEP5tcb_t
_ZN7mutex_t11hybrid_lockEP5tcb_t12mutex_user_tPFvvE
_ZN7mutex_t12dequeue_heldEP5tcb_t
_ZN7mutex_t12enqueue_heldEP5tcb_t
_ZN7mutex_t13hybrid_unlockEP5tcb_t12mutex_user_tPFvvE
_ZN7mutex_t15dequeue_presentEv
_ZN7mutex_t15enqueue_presentEv
_ZN7mutex_t4initE9mutexid_t
_ZN7mutex_t7acquireEP5tcb_t
_ZN7mutex_t7destroyEv
_ZN7mutex_t7releaseEv
_ZN7space_t10remap_areaEPvS0_N7pgent_t8pgsize_eEmNS_5rwx_eEbb
_ZN7space_t11add_mappingEPvS0_N7pgent_t8pgsize_eENS_5rwx_eEbb11memattrib_e
_ZN7space_t13space_controlEm
_ZN7timer_t11init_clocksEv
_ZN8Platform11init_clocksEv
_ZN8Platform11serial_getcEb
_ZN8Platform11serial_initEv
_ZN8Platform11serial_putcEc
_ZN8Platform16config_interruptEPNS_10irq_desc_tEPv13irq_control_tS2_
_ZN8Platform17dcache_attributesEPmS0_S0_S0_
_ZN8Platform17icache_attributesEPmS0_S0_S0_
_ZN8Platform18disable_timer_tickEv
_ZN8Platform19do_platform_controlEPv14plat_control_tmmmPFvvE
_ZN8Platform26security_control_interruptEPNS_10irq_desc_tEPvm
_ZN8Platform4initEii
_ZN8Platform6rebootEv
_ZZ12sys_scheduleE19__PRETTY_FUNCTION__
_ZZ17init_root_serversvE19__PRETTY_FUNCTION__
_ZZ18create_root_server10threadid_t7fpage_tmE19__PRETTY_FUNCTION__
_ZZ18send_exception_ipcP21ia32_exceptionframe_tmPFvvEE12__FUNCTION__
_ZZ18sys_thread_controlE12__FUNCTION__
_ZZ19finish_sys_schedulevE12__FUNCTION__
_ZZ22setup_initial_mappingsP7space_tE19__PRETTY_FUNCTION__
_ZZ7sys_ipcE19__PRETTY_FUNCTION__
_ZZN15generic_space_t16handle_pagefaultEPvS0_NS_8access_eEbPFvvEE12__FUNCTION__
_ZZN15generic_space_t16handle_pagefaultEPvS0_NS_8access_eEbPFvvEE19__PRETTY_FUNCTION__
_ZZN15generic_space_t8activateEP5tcb_tE21last_active_pagetable
_ZZN18tcb_syscall_data_t12get_ipc_valsEvE12__FUNCTION__
_ZZN18tcb_syscall_data_t12get_ipc_valsEvE12__FUNCTION__
_ZZN18tcb_syscall_data_t12get_ipc_valsEvE12__FUNCTION__
_ZZN18tcb_syscall_data_t12get_ipc_valsEvE12__FUNCTION__
_ZZN18tcb_syscall_data_t12get_ipc_valsEvE12__FUNCTION__
_ZZN5kdb_t13cmd_dump_ptabEP11cmd_group_tE6spaces
_ZZN5kdb_t5entryEPvE8kdb_lock
_ZZN5kdb_t7cmd_idtEP11cmd_group_tE12type_strings
_ZZN5tcb_t6unwindEPS_E19__PRETTY_FUNCTION__
_ZZN7space_t11add_mappingEPvS0_N7pgent_t8pgsize_eENS_5rwx_eEbb11memattrib_eE19__PRETTY_FUNCTION__
__diverror.c
__divide_error
__idle_tcb
__idle_utcb
__kdb_arch_cmd__abort
__kdb_arch_cmd__help
__kdb_arch_cmd__prior
__kdb_arch_cmd_apic
__kdb_arch_cmd_branchstep
__kdb_arch_cmd_breakpoint
__kdb_arch_cmd_cpu
__kdb_arch_cmd_dump_ldt
__kdb_arch_cmd_dump_msrs
__kdb_arch_cmd_dumpvga
__kdb_arch_cmd_gdt
__kdb_arch_cmd_idt
__kdb_arch_cmd_nmi
__kdb_arch_cmd_ports
__kdb_arch_cmd_show_ctrlregs
__kdb_arch_cmd_singlestep
__kdb_config_cmd__abort
__kdb_config_cmd__help
__kdb_config_cmd__prior
__kdb_config_cmd_mode_switch
__kdb_config_cmd_tid_format
__kdb_config_cmd_wordsize
__kdb_group_arch
__kdb_group_config
__kdb_group_root
__kdb_group_statistics
__kdb_group_tracebuf
__kdb_group_tracepoints
__kdb_root_cmd__abort
__kdb_root_cmd__help
__kdb_root_cmd__prior
__kdb_root_cmd_arch
__kdb_root_cmd_config
__kdb_root_cmd_dump_current_frame
__kdb_root_cmd_dump_frame
__kdb_root_cmd_dump_ptab
__kdb_root_cmd_go
__kdb_root_cmd_list_clists
__kdb_root_cmd_list_spaces
__kdb_root_cmd_memdump
__kdb_root_cmd_memdump_phys
__kdb_root_cmd_memdump_remote
__kdb_root_cmd_reboot
__kdb_root_cmd_reset
__kdb_root_cmd_show_clist
__kdb_root_cmd_show_dep_graph
__kdb_root_cmd_show_mutexes
__kdb_root_cmd_show_ready
__kdb_root_cmd_show_space
__kdb_root_cmd_show_tcb
__kdb_root_cmd_show_tcbext
__kdb_root_cmd_statistics
__kdb_root_cmd_tracebuffer
__kdb_root_cmd_tracepoints
__kdb_statistics_cmd__abort
__kdb_statistics_cmd__help
__kdb_statistics_cmd__prior
__kdb_statistics_cmd_kmem_stats
__kdb_tracebuf_cmd__abort
__kdb_tracebuf_cmd__help
__kdb_tracebuf_cmd__prior
__kdb_tracebuf_cmd_tb_dump
__kdb_tracebuf_cmd_tb_info
__kdb_tracebuf_cmd_tb_logmask
__kdb_tracebuf_cmd_tb_reset
__kdb_tracepoints_cmd__abort
__kdb_tracepoints_cmd__help
__kdb_tracepoints_cmd__prior
__kdb_tracepoints_cmd_tp_conf
__kdb_tracepoints_cmd_tp_conf_all
__kdb_tracepoints_cmd_tp_disable
__kdb_tracepoints_cmd_tp_enable
__kdb_tracepoints_cmd_tp_list
__kdb_tracepoints_cmd_tp_reset
__kernel_space_object
__kmem_group_kmem_clist
__kmem_group_kmem_clistids
__kmem_group_kmem_ll
__kmem_group_kmem_misc
__kmem_group_kmem_mutex
__kmem_group_kmem_mutexids
__kmem_group_kmem_pgtab
__kmem_group_kmem_resources
__kmem_group_kmem_root_clist
__kmem_group_kmem_space
__kmem_group_kmem_spaceids
__kmem_group_kmem_stack
__kmem_group_kmem_tcb
__kmem_group_kmem_trace
__kmem_group_kmem_utcb
__kmem_groups
__macro_set___kdb_group_arch_array
__macro_set___kdb_group_arch_count
__macro_set___kdb_group_config_array
__macro_set___kdb_group_config_count
__macro_set___kdb_group_root_array
__macro_set___kdb_group_root_count
__macro_set___kdb_group_statistics_array
__macro_set___kdb_group_statistics_count
__macro_set___kdb_group_tracebuf_array
__macro_set___kdb_group_tracebuf_count
__macro_set___kdb_group_tracepoints_array
__macro_set___kdb_group_tracepoints_count
__macro_set___kmem_groups_array
__macro_set___kmem_groups_count
__macro_set_kdb_initfuncs_array
__macro_set_kdb_initfuncs_count
__macro_set_tracepoint_set_array
__macro_set_tracepoint_set_count
__phs_addr_ram
__phys_addr_ram
__scheduler
__setentry___kdb_group_arch___kdb_arch_cmd__abort
__setentry___kdb_group_arch___kdb_arch_cmd__help
__setentry___kdb_group_arch___kdb_arch_cmd__prior
__setentry___kdb_group_arch___kdb_arch_cmd_apic
__setentry___kdb_group_arch___kdb_arch_cmd_branchstep
__setentry___kdb_group_arch___kdb_arch_cmd_breakpoint
__setentry___kdb_group_arch___kdb_arch_cmd_cpu
__setentry___kdb_group_arch___kdb_arch_cmd_dump_ldt
__setentry___kdb_group_arch___kdb_arch_cmd_dump_msrs
__setentry___kdb_group_arch___kdb_arch_cmd_dumpvga
__setentry___kdb_group_arch___kdb_arch_cmd_gdt
__setentry___kdb_group_arch___kdb_arch_cmd_idt
__setentry___kdb_group_arch___kdb_arch_cmd_nmi
__setentry___kdb_group_arch___kdb_arch_cmd_ports
__setentry___kdb_group_arch___kdb_arch_cmd_show_ctrlregs
__setentry___kdb_group_arch___kdb_arch_cmd_singlestep
__setentry___kdb_group_config___kdb_config_cmd__abort
__setentry___kdb_group_config___kdb_config_cmd__help
__setentry___kdb_group_config___kdb_config_cmd__prior
__setentry___kdb_group_config___kdb_config_cmd_mode_switch
__setentry___kdb_group_config___kdb_config_cmd_tid_format
__setentry___kdb_group_config___kdb_config_cmd_wordsize
__setentry___kdb_group_root___kdb_root_cmd__abort
__setentry___kdb_group_root___kdb_root_cmd__help
__setentry___kdb_group_root___kdb_root_cmd__prior
__setentry___kdb_group_root___kdb_root_cmd_arch
__setentry___kdb_group_root___kdb_root_cmd_config
__setentry___kdb_group_root___kdb_root_cmd_dump_current_frame
__setentry___kdb_group_root___kdb_root_cmd_dump_frame
__setentry___kdb_group_root___kdb_root_cmd_dump_ptab
__setentry___kdb_group_root___kdb_root_cmd_go
__setentry___kdb_group_root___kdb_root_cmd_list_clists
__setentry___kdb_group_root___kdb_root_cmd_list_spaces
__setentry___kdb_group_root___kdb_root_cmd_memdump
__setentry___kdb_group_root___kdb_root_cmd_memdump_phys
__setentry___kdb_group_root___kdb_root_cmd_memdump_remote
__setentry___kdb_group_root___kdb_root_cmd_reboot
__setentry___kdb_group_root___kdb_root_cmd_reset
__setentry___kdb_group_root___kdb_root_cmd_show_clist
__setentry___kdb_group_root___kdb_root_cmd_show_dep_graph
__setentry___kdb_group_root___kdb_root_cmd_show_mutexes
__setentry___kdb_group_root___kdb_root_cmd_show_ready
__setentry___kdb_group_root___kdb_root_cmd_show_space
__setentry___kdb_group_root___kdb_root_cmd_show_tcb
__setentry___kdb_group_root___kdb_root_cmd_show_tcbext
__setentry___kdb_group_root___kdb_root_cmd_statistics
__setentry___kdb_group_root___kdb_root_cmd_tracebuffer
__setentry___kdb_group_root___kdb_root_cmd_tracepoints
__setentry___kdb_group_statistics___kdb_statistics_cmd__abort
__setentry___kdb_group_statistics___kdb_statistics_cmd__help
__setentry___kdb_group_statistics___kdb_statistics_cmd__prior
__setentry___kdb_group_statistics___kdb_statistics_cmd_kmem_stats
__setentry___kdb_group_tracebuf___kdb_tracebuf_cmd__abort
__setentry___kdb_group_tracebuf___kdb_tracebuf_cmd__help
__setentry___kdb_group_tracebuf___kdb_tracebuf_cmd__prior
__setentry___kdb_group_tracebuf___kdb_tracebuf_cmd_tb_dump
__setentry___kdb_group_tracebuf___kdb_tracebuf_cmd_tb_info
__setentry___kdb_group_tracebuf___kdb_tracebuf_cmd_tb_logmask
__setentry___kdb_group_tracebuf___kdb_tracebuf_cmd_tb_reset
__setentry___kdb_group_tracepoints___kdb_tracepoints_cmd__abort
__setentry___kdb_group_tracepoints___kdb_tracepoints_cmd__help
__setentry___kdb_group_tracepoints___kdb_tracepoints_cmd__prior
__setentry___kdb_group_tracepoints___kdb_tracepoints_cmd_tp_conf
__setentry___kdb_group_tracepoints___kdb_tracepoints_cmd_tp_conf_all
__setentry___kdb_group_tracepoints___kdb_tracepoints_cmd_tp_disable
__setentry___kdb_group_tracepoints___kdb_tracepoints_cmd_tp_enable
__setentry___kdb_group_tracepoints___kdb_tracepoints_cmd_tp_list
__setentry___kdb_group_tracepoints___kdb_tracepoints_cmd_tp_reset
__setentry___kmem_groups___kmem_group_kmem_clist
__setentry___kmem_groups___kmem_group_kmem_clistids
__setentry___kmem_groups___kmem_group_kmem_ll
__setentry___kmem_groups___kmem_group_kmem_misc
__setentry___kmem_groups___kmem_group_kmem_mutex
__setentry___kmem_groups___kmem_group_kmem_mutexids
__setentry___kmem_groups___kmem_group_kmem_pgtab
__setentry___kmem_groups___kmem_group_kmem_resources
__setentry___kmem_groups___kmem_group_kmem_root_clist
__setentry___kmem_groups___kmem_group_kmem_space
__setentry___kmem_groups___kmem_group_kmem_spaceids
__setentry___kmem_groups___kmem_group_kmem_stack
__setentry___kmem_groups___kmem_group_kmem_tcb
__setentry___kmem_groups___kmem_group_kmem_trace
__setentry___kmem_groups___kmem_group_kmem_utcb
__setentry_tracepoint_set___tracepoint_DEADLOCK_DETECTED
__setentry_tracepoint_set___tracepoint_EXCEPTION_IPC
__setentry_tracepoint_set___tracepoint_FPAGE_MAP
__setentry_tracepoint_set___tracepoint_FPAGE_OVERMAP
__setentry_tracepoint_set___tracepoint_FPAGE_READ
__setentry_tracepoint_set___tracepoint_FPAGE_UNMAP
__setentry_tracepoint_set___tracepoint_IA32_GP
__setentry_tracepoint_set___tracepoint_IA32_NOMATH
__setentry_tracepoint_set___tracepoint_IA32_SEGRELOAD
__setentry_tracepoint_set___tracepoint_IA32_UD
__setentry_tracepoint_set___tracepoint_INTERRUPT
__setentry_tracepoint_set___tracepoint_IPC_TRANSFER
__setentry_tracepoint_set___tracepoint_KMEM_ALLOC
__setentry_tracepoint_set___tracepoint_KMEM_FREE
__setentry_tracepoint_set___tracepoint_PAGEFAULT_KERNEL
__setentry_tracepoint_set___tracepoint_PAGEFAULT_USER
__setentry_tracepoint_set___tracepoint_PREEMPTION_FAULT
__setentry_tracepoint_set___tracepoint_PREEMPTION_SIGNALED
__setentry_tracepoint_set___tracepoint_SYSCALL_CACHE_CONTROL
__setentry_tracepoint_set___tracepoint_SYSCALL_CAP_CONTROL
__setentry_tracepoint_set___tracepoint_SYSCALL_EXCHANGE_REGISTERS
__setentry_tracepoint_set___tracepoint_SYSCALL_INTERRUPT_CONTROL
__setentry_tracepoint_set___tracepoint_SYSCALL_IPC
__setentry_tracepoint_set___tracepoint_SYSCALL_MAP_CONTROL
__setentry_tracepoint_set___tracepoint_SYSCALL_MEMORY_COPY
__setentry_tracepoint_set___tracepoint_SYSCALL_MUTEX
__setentry_tracepoint_set___tracepoint_SYSCALL_MUTEX_CONTROL
__setentry_tracepoint_set___tracepoint_SYSCALL_PLATFORM_CONTROL
__setentry_tracepoint_set___tracepoint_SYSCALL_SCHEDULE
__setentry_tracepoint_set___tracepoint_SYSCALL_SECURITY_CONTROL
__setentry_tracepoint_set___tracepoint_SYSCALL_SPACE_CONTROL
__setentry_tracepoint_set___tracepoint_SYSCALL_SPACE_SWITCH
__setentry_tracepoint_set___tracepoint_SYSCALL_THREAD_CONTROL
__setentry_tracepoint_set___tracepoint_SYSCALL_THREAD_SWITCH
__setentry_tracepoint_set___tracepoint_TIMESLICE_EXPIRED
__setentry_tracepoint_set___tracepoint_UNWIND
__stack
__sysenter_table_start
__tracepoint_DEADLOCK_DETECTED
__tracepoint_EXCEPTION_IPC
__tracepoint_FPAGE_MAP
__tracepoint_FPAGE_OVERMAP
__tracepoint_FPAGE_READ
__tracepoint_FPAGE_UNMAP
__tracepoint_IA32_GP
__tracepoint_IA32_NOMATH
__tracepoint_IA32_SEGRELOAD
__tracepoint_IA32_UD
__tracepoint_INTERRUPT
__tracepoint_IPC_TRANSFER
__tracepoint_KMEM_ALLOC
__tracepoint_KMEM_FREE
__tracepoint_PAGEFAULT_KERNEL
__tracepoint_PAGEFAULT_USER
__tracepoint_PREEMPTION_FAULT
__tracepoint_PREEMPTION_SIGNALED
__tracepoint_SYSCALL_CACHE_CONTROL
__tracepoint_SYSCALL_CAP_CONTROL
__tracepoint_SYSCALL_EXCHANGE_REGISTERS
__tracepoint_SYSCALL_INTERRUPT_CONTROL
__tracepoint_SYSCALL_IPC
__tracepoint_SYSCALL_MAP_CONTROL
__tracepoint_SYSCALL_MEMORY_COPY
__tracepoint_SYSCALL_MUTEX
__tracepoint_SYSCALL_MUTEX_CONTROL
__tracepoint_SYSCALL_PLATFORM_CONTROL
__tracepoint_SYSCALL_SCHEDULE
__tracepoint_SYSCALL_SECURITY_CONTROL
__tracepoint_SYSCALL_SPACE_CONTROL
__tracepoint_SYSCALL_SPACE_SWITCH
__tracepoint_SYSCALL_THREAD_CONTROL
__tracepoint_SYSCALL_THREAD_SWITCH
__tracepoint_TIMESLICE_EXPIRED
__tracepoint_UNWIND
__udivdi3
__udivdi3.c
__udivmoddi4
__udivmoddi4.c
__umoddi3
__umoddi3.c
_bss_end
_bss_start
_end_bootmem
_end_bootmem_phys
_end_cpu_local
_end_init
_end_setlist
_end_sets
_end_text
_end_text_phys
_mb_header
_mini_stack
_start
_start_bootmem
_start_bootmem_phys
_start_cpu_local
_start_init
_start_setlist
_start_sets
_start_text
_start_text_phys
active_schedule
arch
arch/ia32/pistachio/src/gnu/bootmem-elf.spp
arch/ia32/pistachio/src/trap.spp
arch_init
asid.cc
assert.cc
breakin_disabled
breakpoints.cc
c_schedule
cache.cc
caps.cc
check_async_ipc
check_async_irq
check_breakin.cc
clist.cc
clist.cc
clist_lookup
cmd.cc
config
console.cc
continuation_exception
continuation_exception
crom
crom_phys
current_clist
data.cc
dbg1394.cc
debug.cc
debug.cc
endpoint.cc
entry.cc
exc_breakpoint
exc_breakpointhandler
exc_catch
exc_catch_all
exc_catch_common
exc_catch_commonhandler
exc_catchhandler
exc_debug
exc_debughandler
exc_fpu_fault
exc_fpu_faulthandler
exc_gp
exc_gphandler
exc_invalid_opcode
exc_invalid_opcodehandler
exc_nmi
exc_nmihandler
exc_nomath_coproc
exc_nomath_coprochandler
exc_pagefault
exc_pagefaulthandler
exc_simd_fault
exc_simd_faulthandler
exc_user_timer
exc_user_timerhandler
exception.cc
exception_common
exregs.cc
fastpath.cc
firewire_debug
fpu_owner
free_tcb_idx
fwaddr_phys
fwaddr_virt
gdt
generic_execution_units
global_mutexes_list
global_present_list
global_spaces_list
handle_interrupt
heap_base
heap_limit
hw_pgshifts
hwirq_0
hwirq_1
hwirq_10
hwirq_11
hwirq_12
hwirq_13
hwirq_14
hwirq_15
hwirq_2
hwirq_3
hwirq_4
hwirq_5
hwirq_6
hwirq_7
hwirq_8
hwirq_9
hwirq_common
ia32_current_clist
ia32_exception_return
ia32_ipc_return
ia32_last_eip
ia32_return_to_user
ia32_single_step_on_branches
ich7_paddr
ich7_vaddr
idt
idt.cc
init.cc
init.cc
init.cc
init_paging
init_pdir
8 init_ptable
init_struct
initial_to_user
input.cc
input_api.cc
intctrl-pic.cc
intctrl.cc
interrupt.cc
io.cc
ipc.cc
irq_mapping
irq_owners
irq_pending
kdb
kdb_disas_readmem
kdb_initfuncs
kdb_last_dump
kdb_lock
kdb_tid_format
kdebug_entries
kernel_exception
kernel_exception
kernel_image_rgn
kernel_version_string
kmem
kmem_clist
kmem_clistids
kmem_ll
kmem_misc
kmem_mutex
kmem_mutexids
kmem_pgtab
kmem_resources
kmem_root_clist
kmem_space
kmem_spaceids
kmem_stack
kmem_tcb
kmem_trace
kmem_utcb
kmemory.cc
kmemory.cc
last_active_tcb
ldt.cc
lib.cc
linear_ptab_dump.cc
linear_ptab_walker.cc
macro_set.cc
macro_sets.cc
map.cc
master
memcpy
memcpy_buf
memdump.cc
memdump_wordsize
memset
mp
mutex.cc
mutex.cc
mutex_list_lock
mutex_pool
mutexid_table
names.cc
num_chunks
num_tcbs
panic.cc
plat.cc
platform.cc
platform/pc99/pistachio/src/startup.spp
platform_impl.cc
platform_support.cc
platsupport.cc
prepost.cc
present_list_lock
print.cc
printf
prioqueue.cc
profile.cc
profiling.cc
readmem.cc
reboot.cc
reboot.cc
remote_memcpy.cc
resources.cc
resources.cc
roinit.cc
root
root_clist
roottask_space
schedule.cc
schedule.cc
schedule.cc
security.cc
serial_buf
sidbuf
sidbuf_phys
slave
smallalloc.cc
smp.cc
smp.cc
space.cc
space.cc
space.cc
space.cc
space_lookup
space_pool
space_switch.cc
spaces_list_lock
stack_top
stand_alone
start
start_post_syscall_callback
statistics
stepping.cc
strcpy
syncpoint.cc
sys_cache_control
sys_cap_control
sys_exchange_registers
sys_interrupt_control
sys_ipc
sys_map_control
sys_memory_copy
sys_mutex
sys_mutex_control
sys_platform_control
sys_schedule
sys_security_control
sys_space_control
sys_space_switch
sys_thread_control
sys_thread_switch
sysenter_entry
sysenter_exception_ipc
sysenter_trampoline
tb_irq
tb_irq_masked
tb_irq_pending
tcb.cc
tcb_array
tcb_resources_load
tcb_resources_save
tcb_size
thread.cc
thread.cc
thread.cc
thread.cc
tid_format.cc
timer
timer-pic.cc
timer_interrupt
timer_interrupthandler
tp_list
trace_buffer
trace_lock
trace_names
tracebuf
tracebuffer.cc
tracebuffer.cc
traceids.cc
tracepoint_set
tracepoints
tracepoints.cc
tracepoints_enabled
tss
user.cc
x86.cc


Name
























$a
$a
$a
$a
$a
$a
$a
$a
$a
$a
$a
$a
$a
$a
$a
$a
$a
$a
$a
$a
$a
$a
$a
$a
$a
$a
$a
$a
$a
$a
$a
$a
$a
$a
$a
$a
$a
$a
$a
$a
$a
$a
$a
$a
$a
$a
$a
$a
$a
$a
$a
$a
$a
$a
$a
$a
$a
$a
$a
$a
$a
$a
$a
$a
$a
$a
$a
$a
$a
$a
$a
$a
$a
$a
$a
$a
$a
$a
$a
$a
$a
$a
$a
$a
$a
$a
$a
$a
$a
$a
$a
$a
$a
$a
$a
$a
$a
$a
$a
$a
$a
$a
$a
$a
$a
$a
$a
$a
$a
$a
$a
$a
$a
$a
$a
$a
$a
$a
$a
$a
$a
$a
$a
$a
$a
$a
$a
$a
$a
$a
$a
$a
$a
$a
$a
$a
$a
$a
$a
$a
$a
$a
$a
$a
$a
$a
$a
$a
$a
$a
$a
$a
$a
$a
$a
$a
$a
$a
$a
$a
$a
$a
$a
$a
$a
$a
$a
$a
$a
$a
$a
$a
$a
$a
$a
$a
$a
$a
$a
$a
$a
$a
$a
$a
$a
$a
$a
$a
$a
$a
$a
$a
$a
$a
$a
$a
$a
$a
$a
$a
$a
$a
$a
$a
$a
$a
$a
$a
$a
$a
$a
$a
$a
$a
$a
$a
$a
$a
$a
$a
$a
$a
$a
$a
$a
$a
$a
$a
$a
$a
$a
$a
$a
$a
$a
$a
$a
$a
$a
$a
$a
$a
$a
$a
$a
$a
$a
$a
$a
$a
$a
$a
$a
$a
$a
$a
$a
$a
$a
$a
$a
$a
$a
$a
$a
$a
$a
$a
$a
$a
$a
$a
$a
$a
$a
$a
$a
$a
$a
$a
$a
$a
$a
$a
$a
$a
$a
$a
$a
$a
$a
$a
$a
$a
$a
$a
$a
$a
$a
$a
$a
$a
$a
$a
$a
$a
$a
$a
$a
$a
$a
$a
$a
$a
$a
$a
$a
$a
$a
$a
$a
$a
$a
$a
$a
$a
$a
$a
$a
$a
$a
$a
$a
$a
$a
$a
$a
$a
$a
$a
$a
$a
$a
$a
$a
$a
$a
$a
$a
$a
$a
$a
$a
$a
$a
$a
$a
$a
$a
$a
$a
$a
$a
$a
$a
$a
$a
$a
$a
$a
$d
$d
$d
$d
$d
$d
$d
$d
$d
$d
$d
$d
$d
$d
$d
$d
$d
$d
$d
$d
$d
$d
$d
$d
$d
$d
$d
$d
$d
$d
$d
$d
$d
$d
$d
$d
$d
$d
$d
$d
$d
$d
$d
$d
$d
$d
$d
$d
$d
$d
$d
$d
$d
$d
$d
$d
$d
$d
$d
$d
$d
$d
$d
$d
$d
$d
$d
$d
$d
$d
$d
$d
$d
$d
$d
$d
$d
$d
$d
$d
$d
$d
$d
$d
$d
$d
$d
$d
$d
$d
$d
$d
$d
$d
$d
$d
$d
$d
$d
$d
$d
$d
$d
$d
$d
$d
$d
$d
$d
$d
$d
$d
$d
$d
$d
$d
$d
$d
$d
$d
$d
$d
$d
$d
$d
$d
$d
$d
$d
$d
$d
$d
$d
$d
$d
$d
$d
$d
$d
$d
$d
$d
$d
$d
$d
$d
$d
$d
$d
$d
$d
$d
$d
$d
$d
$d
$d
$d
$d
$d
$d
$d
$d
$d
$d
$d
$d
$d
$d
$d
$d
$d
$d
$d
$d
$d
$d
$d
$d
$d
$d
$d
$d
$d
$d
$d
$d
$d
$d
$d
$d
$d
$d
$d
$d
$d
$d
$d
$d
$d
$d
$d
$d
$d
$d
$d
$d
$d
$d
$d
$d
$d
$d
$d
$d
$d
$d
$d
$d
$d
$d
$d
$d
$d
$d
$d
$d
$d
$d
$d
$d
$d
$d
$d
$d
$d
$d
$d
$d
$d
$d
$d
$d
$d
$d
$d
$d
$d
$d
$d
$d
$d
$d
$d
$d
$d
$d
$d
$d
$d
$d
$d
$d
$d
$d
$d
$d
$d
$d
$d
$d
$d
$d
$d
$d
$d
$d
$d
$d
$d
$d
$d
$d
$d
$d
$d
$d
$d
$d
$d
$d
$d
$d
$d
$d
$d
$d
$d
$d
$d
$d
$d
$d
$d
$d
$d
$d
$d
$d
$d
$d
$d
$d
$d
$d
$d
$d
$d
$d
$d
$d
$d
$d
$d
$d
$d
$d
$d
$d
$d
$d
$d
$d
$d
$d
$d
$d
$d
$d
$d
$d
$d
$d
$d
$d
$d
$d
$d
$d
$d
$d
$d
$d
$d
$d
$d
$d
$d
$d
$d
$d
$d
$d
$d
$d
$d
$d
$d
$d
$d
$d
$d
$d
$d
$d
$d
$d
$d
$d
$d
$d
$d
$d
$d
$d
$d
$d
$d
$d
$d
$d
$d
$d
$d
$d
$d
$d
$d
$d
$d
$d
$d
$d
$d
$d
$d
$d
$d
$d
$d
$d
$d
$d
$d
$d
$d
$d
$d
$d
$d
$d
$d
$d
$d
$d
$d
$d
$d
$d
$d
$d
$d
$d
$d
$d
$d
$d
$d
$d
$d
$d
$d
$d
$d
$d
$d
$d
$d
$d
$d
$d
$d
$d
.fend_vector_arm_abort_return
.fend_vector_arm_common_return
.fend_vector_arm_data_abort_exception
.fend_vector_arm_fiq_exception
.fend_vector_arm_high_vector
.fend_vector_arm_irq_exception
.fend_vector_arm_misc_syscall
.fend_vector_arm_prefetch_abort_exception
.fend_vector_arm_reset_exception
.fend_vector_arm_swi_exception
.fend_vector_arm_swi_syscall
.fend_vector_arm_undefined_inst_exception
.fend_vector_ipc_syscall_return
.fend_vector_sys_exchange_registers_exargs
.fend_vector_sys_schedule_exargs
.fend_vector_sys_space_control_exargs
.fend_vector_sys_thread_control_exargs
.fend_vector_syscall_return
/home/tsewell/crosstool-0.38/build/arm-linux/gcc-3.4.4-glibc-2.3.5/gcc-3.4.4/gcc/config/arm/ieee754-df.S
/home/tsewell/crosstool-0.38/build/arm-linux/gcc-3.4.4-glibc-2.3.5/gcc-3.4.4/gcc/config/arm/ieee754-df.S
/home/tsewell/crosstool-0.38/build/arm-linux/gcc-3.4.4-glibc-2.3.5/gcc-3.4.4/gcc/config/arm/ieee754-df.S
/home/tsewell/crosstool-0.38/build/arm-linux/gcc-3.4.4-glibc-2.3.5/gcc-3.4.4/gcc/config/arm/ieee754-sf.S
/home/tsewell/crosstool-0.38/build/arm-linux/gcc-3.4.4-glibc-2.3.5/gcc-3.4.4/gcc/config/arm/ieee754-sf.S
/home/tsewell/crosstool-0.38/build/arm-linux/gcc-3.4.4-glibc-2.3.5/gcc-3.4.4/gcc/config/arm/ieee754-sf.S
/home/tsewell/crosstool-0.38/build/arm-linux/gcc-3.4.4-glibc-2.3.5/gcc-3.4.4/gcc/config/arm/lib1funcs.asm
/home/tsewell/crosstool-0.38/build/arm-linux/gcc-3.4.4-glibc-2.3.5/gcc-3.4.4/gcc/config/arm/lib1funcs.asm
/home/tsewell/crosstool-0.38/build/arm-linux/gcc-3.4.4-glibc-2.3.5/gcc-3.4.4/gcc/config/arm/lib1funcs.asm
/home/tsewell/crosstool-0.38/build/arm-linux/gcc-3.4.4-glibc-2.3.5/gcc-3.4.4/gcc/config/arm/lib1funcs.asm
/home/tsewell/crosstool-0.38/build/arm-linux/gcc-3.4.4-glibc-2.3.5/gcc-3.4.4/gcc/config/arm/lib1funcs.asm
/home/tsewell/crosstool-0.38/build/arm-linux/gcc-3.4.4-glibc-2.3.5/gcc-3.4.4/gcc/config/arm/lib1funcs.asm
/home/tsewell/crosstool-0.38/build/arm-linux/gcc-3.4.4-glibc-2.3.5/gcc-3.4.4/gcc/config/arm/lib1funcs.asm
/home/tsewell/crosstool-0.38/build/arm-linux/gcc-3.4.4-glibc-2.3.5/gcc-3.4.4/gcc/config/arm/lib1funcs.asm
/home/tsewell/crosstool-0.38/build/arm-linux/gcc-3.4.4-glibc-2.3.5/gcc-3.4.4/gcc/config/arm/lib1funcs.asm
/home/tsewell/crosstool-0.38/build/arm-linux/gcc-3.4.4-glibc-2.3.5/gcc-3.4.4/gcc/config/arm/lib1funcs.asm
/home/tsewell/crosstool-0.38/build/arm-linux/gcc-3.4.4-glibc-2.3.5/gcc-3.4.4/gcc/config/arm/lib1funcs.asm
/home/tsewell/crosstool-0.38/build/arm-linux/gcc-3.4.4-glibc-2.3.5/gcc-3.4.4/gcc/config/arm/lib1funcs.asm
<built-in>
<built-in>
<built-in>
<built-in>
<built-in>
<built-in>
<built-in>
<built-in>
<command line>
<command line>
<command line>
<command line>
<command line>
<command line>
<command line>
<command line>
DCACHE_LINE_SIZE
DCACHE_SETS
DCACHE_SIZE
DCACHE_WAYS
ICACHE_LINE_SIZE
ICACHE_SETS
ICACHE_SIZE
ICACHE_WAYS
L1
L1
_GLOBAL_OFFSET_TABLE_
_Z10dump_mutexP7mutex_t
_Z10free_spaceP7space_t
_Z10full_flushv
_Z10get_choicePKcS0_c
_Z10get_threadPKc
_Z10init_hellov
_Z10init_mutexv
_Z11halt_threadP5tcb_tPFvvE
_Z11idle_threadv
_Z11kdb_get_tcbv
_Z11kdebug_initv
_Z11print_dec64yibbbc
_Z11print_hex64yiibb
_Z11print_mutexmmmb
_Z11print_spacemmmb
_Z11range_flushv
_Z11restart_ipcv
_Z11switch_fromP5tcb_tPFvvE
_Z11tb_allocatemPm
_Z11valid_space9spaceid_t
_Z12allocate_tcb10threadid_t
_Z12generic_initv
_Z12init_consolev
_Z12kdebug_entryPv
_Z12memdump_loopP7space_tPv
_Z12mutex_wakeupv
_Z12print_headerv
_Z12print_stringPKcii
_Z12tb_log_eventm
_Z12tb_log_tracemPcz
_Z12tb_reply_irqv
_Z13do_ipc_helperv
_Z13init_clistidsv
_Z13init_spaceidsv
_Z13print_hex_sepmiPKc
_Z13resume_threadP5tcb_tPFvvE
_Z14allocate_space9spaceid_tP7clist_t
_Z14arm_dump_frameP17arm_irq_context_t
_Z14get_key_stringcPKc
_Z14print_cmd_pathP11cmd_group_t
_Z14return_successv
_Z14tb_irq_controlb
_Z14thread_startupv
_Z15fass_update_pdsP7space_t7pgent_tS1_m
_Z15init_root_clistv
_Z16__assert_failurePKc
_Z16find_kernel_heapPmS_
_Z16handle_ipc_errorv
_Z16init_all_threadsv
_Z16init_tracebufferv
_Z16memory_copy_loopv
_Z16range_flush_fullv
_Z17fass_sync_addressP7space_tPvPb
_Z17finish_kernel_ipcv
_Z17init_kernel_spacev
_Z17init_root_serversv
_Z18create_idle_threadv
_Z18create_root_server10threadid_t7fpage_tm
_Z18init_tcb_allocatorv
_Z18kdb_breakin_enablev
_Z19finish_sys_schedulev
_Z19halt_current_threadPFvvE
_Z19hybrid_mutex_wakeupv
_Z19init_arm_interruptsv
_Z19init_kernel_threadsv
_Z19is_breakin_disabledv
_Z19kdb_breakin_disablev
_Z19kdb_breakin_handleri
_Z19kdb_set_object_name13object_type_emPKc
_Z19memory_copy_recoverv
_Z19set_thread_handlersP5tcb_t10threadid_tS1_S1_
_Z20finish_exception_ipcv
_Z20finish_perform_exregv
_Z20get_ptab_dump_rangesPPvPmPN7pgent_t8pgsize_eE
_Z20kdebug_check_breakinv
_Z21acquire_read_lock_tcbP5tcb_t
_Z21return_ipc_error_recvP5tcb_tS0_S0_m
_Z21return_ipc_error_sendP5tcb_tS0_S0_m
_Z22enqueue_tcb_and_returnP5tcb_tS0_PFvvE
_Z22setup_initial_mappingsP7space_t
_Z23finish_arm_memory_abortv
_Z24abort_sys_thread_controlv
_Z24return_failure_pagefaultv
_Z25finish_exchange_registersv
_Z25finish_sys_thread_controlv
_Z27lookup_tcb_by_handle_lockedm
_Z4getcb
_Z4putcc
_Z7__panicv
_Z7get_decPKcmS0_
_Z7get_hexPKcmS0_
_Z7get_tcbPv
_Z7memdumpP7space_tPv
_Z7str2intPKciPmm
_Z7strncmpPcS_i
_Z8dump_tcbP5tcb_t
_Z8free_tcbP5tcb_t
_Z9do_printfPKcPv
_Z9dump_utcbP5tcb_t
_Z9get_framev
_Z9get_spacePKc
_Z9next_linkP5tcb_t
_Z9print_decmibbbc
_Z9print_hexmiibb
_Z9print_tcbmmmb
_Z9print_tid10threadid_tmmb
_Z9switch_toP5tcb_tS0_
_ZN10arm_fass_t11free_domainEP7space_t
_ZN10arm_fass_t14domain_recycleEP7space_t
_ZN10arm_fass_t18replacement_domainEv
_ZN10arm_fass_t4initEv
_ZN10arm_fass_t9clean_allEm
_ZN10arm_fass_t9get_spaceEj
_ZN10arm_fass_t9set_spaceEjP7space_t
_ZN10endpoint_t12dequeue_recvEP5tcb_t
_ZN10endpoint_t12dequeue_sendEP5tcb_t
_ZN10endpoint_t12enqueue_recvEP5tcb_t
_ZN10endpoint_t12enqueue_sendEP5tcb_t
_ZN10endpoint_t4initEP5tcb_t
_ZN11cmd_group_t15interact_by_keyEv
_ZN11cmd_group_t19interact_by_commandEv
_ZN11cmd_group_t8interactEPS_Pc
_ZN11macro_set_t3getEm
_ZN11macro_set_t4nextEv
_ZN11macro_set_t4sizeEv
_ZN11macro_set_t5printEv
_ZN11macro_set_t5resetEv
_ZN11scheduler_t11do_scheduleEP5tcb_tmmm
_ZN11scheduler_t12current_timeE
_ZN11scheduler_t13fast_scheduleEP5tcb_tNS_20fast_schedule_type_eES1_PFvvEm
_ZN11scheduler_t14smt_rescheduleEP5tcb_t
_ZN11scheduler_t16end_of_timesliceEP5tcb_t
_ZN11scheduler_t17set_active_threadEP5tcb_tS1_
_ZN11scheduler_t20get_highest_priorityEv
_ZN11scheduler_t22set_effective_priorityEP5tcb_ti
_ZN11scheduler_t26release_and_reschedule_tcbEP5tcb_t
_ZN11scheduler_t4initEb
_ZN11scheduler_t5startEm
_ZN11scheduler_t5yieldEP5tcb_tS1_PFvvE
_ZN11scheduler_t8scheduleEP5tcb_tPFvvEm
_ZN11syncpoint_t13is_deadlockedEP5tcb_tPiS2_
_ZN11syncpoint_t14become_donateeEP5tcb_t
_ZN11syncpoint_t15dequeue_blockedEP5tcb_t
_ZN11syncpoint_t15enqueue_blockedEP5tcb_t
_ZN11syncpoint_t15release_donateeEv
_ZN11syncpoint_t15report_deadlockEP5tcb_tii
_ZN11syncpoint_t18enqueue_tcb_sortedEP5tcb_t
_ZN11syncpoint_t25propagate_priority_changeEv
_ZN11syncpoint_t27propagate_priority_increaseEi
_ZN11syncpoint_t4initEP5tcb_t
_ZN11syncpoint_t5blockEP5tcb_t
_ZN11syncpoint_t7refreshEP5tcb_t
_ZN11syncpoint_t7unblockEP5tcb_t
_ZN12mutex_user_t10get_holderEP5tcb_t
_ZN12mutex_user_t10set_holderEP5tcb_tmb
_ZN12mutex_user_t17atomic_set_holderEP5tcb_tm
_ZN12mutex_user_t20atomic_set_contendedEP5tcb_t
_ZN12mutex_user_t8set_freeEP5tcb_t
_ZN12prio_queue_t17set_base_priorityEP5tcb_ti
_ZN12prio_queue_t22set_effective_priorityEP5tcb_ti
_ZN12prio_queue_t4initEv
_ZN12prio_queue_t7dequeueEP5tcb_t
_ZN12prio_queue_t7enqueueEP5tcb_t
_ZN13small_alloc_t10free_blockEP12kmem_group_tP19small_alloc_block_t
_ZN13small_alloc_t14allocate_blockEP12kmem_group_t
_ZN13small_alloc_t4freeEPv
_ZN13small_alloc_t4initEP12kmem_group_tmm
_ZN13small_alloc_t8allocateEv
_ZN15PlatformSupport12enter_kdebugEPc
_ZN15PlatformSupport14deliver_notifyEPvmPFvvE
_ZN15PlatformSupport17lookup_tcb_lockedE10threadid_t
_ZN15PlatformSupport21add_mapping_to_kernelEPvS0_NS_8pgsize_eENS_5rwx_eEbNS_11memattrib_eE
_ZN15PlatformSupport32scheduler_handle_timer_interruptEbPFvvE
_ZN15PlatformSupport6printfEPKcz
_ZN15PlatformSupport8mem_freeEPvm
_ZN15PlatformSupport8scheduleEPFvvE
_ZN15PlatformSupport9mem_allocEmb
_ZN15cap_reference_t13add_referenceEP5cap_tS1_
_ZN15cap_reference_t13add_referenceEP5tcb_tP5cap_t
_ZN15cap_reference_t16remove_referenceEP5cap_tS1_
_ZN15cap_reference_t16remove_referenceEP5tcb_tP5cap_t
_ZN15cap_reference_t18cap_reference_lockE
_ZN15cap_reference_t20invalidate_referenceEP5cap_t
_ZN15cap_reference_t20invalidate_referenceEP5tcb_t
_ZN15generic_space_t10read_fpageE7fpage_tP11phys_desc_tP11perm_desc_t
_ZN15generic_space_t11unmap_fpageE7fpage_tb
_ZN15generic_space_t12readmem_physEPvS0_
_ZN15generic_space_t13allocate_utcbEP5tcb_t
_ZN15generic_space_t14free_utcb_pageEP7pgent_tNS0_8pgsize_eEPv
_ZN15generic_space_t14lookup_mappingEPvPP7pgent_tPNS1_8pgsize_eE
_ZN15generic_space_t16handle_pagefaultEPvS0_NS_8access_eEbPFvvE
_ZN15generic_space_t18flush_tlbent_localEP7space_tPvm
_ZN15generic_space_t19check_utcb_locationEm
_ZN15generic_space_t19free_page_directoryEv
_ZN15generic_space_t20init_kernel_mappingsEv
_ZN15generic_space_t21free_utcb_area_memoryEv
_ZN15generic_space_t23allocate_page_directoryEv
_ZN15generic_space_t4freeEv
_ZN15generic_space_t4initE7fpage_t
_ZN15generic_space_t7readmemEPvPm
_ZN15generic_space_t8activateEP5tcb_t
_ZN15generic_space_t9arch_freeEv
_ZN15generic_space_t9flush_tlbEP7space_t
_ZN15generic_space_t9free_utcbEP6utcb_t
_ZN15generic_space_t9map_fpageE11phys_desc_t7fpage_t
_ZN18thread_resources_t4freeEP5tcb_t
_ZN18thread_resources_t4initEP5tcb_t
_ZN18thread_resources_t5purgeEP5tcb_t
_ZN5kdb_t10cmd__abortEP11cmd_group_t
_ZN5kdb_t10cmd__priorEP11cmd_group_t
_ZN5kdb_t10cmd_configEP11cmd_group_t
_ZN5kdb_t10cmd_rebootEP11cmd_group_t
_ZN5kdb_t11cmd_memdumpEP11cmd_group_t
_ZN5kdb_t11cmd_tb_dumpEP11cmd_group_t
_ZN5kdb_t11cmd_tb_infoEP11cmd_group_t
_ZN5kdb_t11cmd_tp_confEP11cmd_group_t
_ZN5kdb_t11cmd_tp_listEP11cmd_group_t
_ZN5kdb_t12cmd_show_tcbEP11cmd_group_t
_ZN5kdb_t12cmd_tb_resetEP11cmd_group_t
_ZN5kdb_t12cmd_tp_resetEP11cmd_group_t
_ZN5kdb_t12cmd_wordsizeEP11cmd_group_t
_ZN5kdb_t13cmd_dump_ptabEP11cmd_group_t
_ZN5kdb_t13cmd_tp_enableEP11cmd_group_t
_ZN5kdb_t14cmd_dump_frameEP11cmd_group_t
_ZN5kdb_t14cmd_kmem_statsEP11cmd_group_t
_ZN5kdb_t14cmd_show_clistEP11cmd_group_t
_ZN5kdb_t14cmd_show_readyEP11cmd_group_t
_ZN5kdb_t14cmd_show_spaceEP11cmd_group_t
_ZN5kdb_t14cmd_statisticsEP11cmd_group_t
_ZN5kdb_t14cmd_tb_logmaskEP11cmd_group_t
_ZN5kdb_t14cmd_tid_formatEP11cmd_group_t
_ZN5kdb_t14cmd_tp_disableEP11cmd_group_t
_ZN5kdb_t15cmd_dump_coprocEP11cmd_group_t
_ZN5kdb_t15cmd_list_clistsEP11cmd_group_t
_ZN5kdb_t15cmd_list_spacesEP11cmd_group_t
_ZN5kdb_t15cmd_mode_switchEP11cmd_group_t
_ZN5kdb_t15cmd_show_tcbextEP11cmd_group_t
_ZN5kdb_t15cmd_tp_conf_allEP11cmd_group_t
_ZN5kdb_t15cmd_tracebufferEP11cmd_group_t
_ZN5kdb_t15cmd_tracepointsEP11cmd_group_t
_ZN5kdb_t16cmd_memdump_physEP11cmd_group_t
_ZN5kdb_t16cmd_show_mutexesEP11cmd_group_t
_ZN5kdb_t17cmd_dump_cp15regsEP11cmd_group_t
_ZN5kdb_t18cmd_memdump_remoteEP11cmd_group_t
_ZN5kdb_t18cmd_show_dep_graphEP11cmd_group_t
_ZN5kdb_t22cmd_dump_current_frameEP11cmd_group_t
_ZN5kdb_t3preEv
_ZN5kdb_t4initEv
_ZN5kdb_t4postEv
_ZN5kdb_t5entryEPv
_ZN5kdb_t6cmd_goEP11cmd_group_t
_ZN5kdb_t8cmd_archEP11cmd_group_t
_ZN5kdb_t9cmd__helpEP11cmd_group_t
_ZN5tcb_t10delete_tcbEv
_ZN5tcb_t10save_stateEm
_ZN5tcb_t11cancel_ipcsEv
_ZN5tcb_t13restore_stateEm
_ZN5tcb_t15release_mutexesEv
_ZN5tcb_t17remove_dependencyEv
_ZN5tcb_t18send_pagefault_ipcEPvS0_N15generic_space_t8access_eEPFvvE
_ZN5tcb_t20create_kernel_threadE10threadid_tP6utcb_t
_ZN5tcb_t20create_startup_stackEPFvvE
_ZN5tcb_t23calc_effective_priorityEv
_ZN5tcb_t4initE10threadid_t
_ZN5tcb_t6unwindEPS_
_ZN5tcb_t8activateEPFvvE
_ZN6kmem_t4freeEPvm
_ZN6kmem_t4initEPvS0_
_ZN6kmem_t5allocEmb
_ZN7clist_t10lookup_capE10threadid_t
_ZN7clist_t11add_ipc_capE10threadid_tP5tcb_t
_ZN7clist_t14add_thread_capE10threadid_tP5tcb_t
_ZN7clist_t14remove_ipc_capE10threadid_t
_ZN7clist_t17remove_thread_capE10threadid_t
_ZN7clist_t21lookup_ipc_cap_lockedE10threadid_t
_ZN7clist_t24lookup_thread_cap_lockedE10threadid_tb
_ZN7clist_t26lookup_thread_cap_unlockedE10threadid_t
_ZN7clist_t8is_emptyEv
_ZN7mutex_t10set_holderEP5tcb_t
_ZN7mutex_t11hybrid_lockEP5tcb_t12mutex_user_tPFvvE
_ZN7mutex_t12dequeue_heldEP5tcb_t
_ZN7mutex_t12enqueue_heldEP5tcb_t
_ZN7mutex_t13hybrid_unlockEP5tcb_t12mutex_user_tPFvvE
_ZN7mutex_t15dequeue_presentEv
_ZN7mutex_t15enqueue_presentEv
_ZN7mutex_t4initE9mutexid_t
_ZN7mutex_t7acquireEP5tcb_t
_ZN7mutex_t7destroyEv
_ZN7mutex_t7releaseEv
_ZN7space_t11add_mappingEPvS0_N7pgent_t8pgsize_eENS_5rwx_eEb11memattrib_e
_ZN7space_t13domain_unlinkEP15generic_space_t
_ZN7space_t15is_client_spaceEPS_
_ZN7space_t17add_shared_domainEPS_b
_ZN7space_t17is_sharing_domainEPS_
_ZN7space_t18window_share_fpageEPS_7fpage_t
_ZN7space_t20flush_sharing_spacesEv
_ZN7space_t20is_manager_of_domainEPS_
_ZN7space_t20remove_shared_domainEPS_
_ZN7space_t23flush_sharing_on_deleteEv
_ZN8Platform10irq_ownersE
_ZN8Platform10pxa_do_irqEmPFvvE
_ZN8Platform10pxa_unmaskEm
_ZN8Platform11disable_fiqEv
_ZN8Platform11init_clocksEv
_ZN8Platform11irq_mappingE
_ZN8Platform11irq_pendingE
_ZN8Platform11serial_getcEb
_ZN8Platform11serial_initEv
_ZN8Platform11serial_putcEc
_ZN8Platform14ticks_disabledE
_ZN8Platform16config_interruptEPNS_10irq_desc_tEPv13irq_control_tS2_
_ZN8Platform17dcache_attributesEPmS0_S0_S0_
_ZN8Platform17icache_attributesEPmS0_S0_S0_
_ZN8Platform18disable_timer_tickEv
_ZN8Platform19do_platform_controlEPv14plat_control_tmmmPFvvE
_ZN8Platform22handle_timer_interruptEbPFvvE
_ZN8Platform26security_control_interruptEPNS_10irq_desc_tEPvm
_ZN8Platform4initEii
_ZN8Platform6rebootEv
_ZN8Platform8pxa_maskEm
_ZZ11init_memoryE17_kernel_top_level
_ZZ12sys_scheduleE19__PRETTY_FUNCTION__
_ZZ16arm_memory_abortE12__FUNCTION__
_ZZ16arm_memory_abortE19__PRETTY_FUNCTION__
_ZZ17init_root_serversvE19__PRETTY_FUNCTION__
_ZZ18create_root_server10threadid_t7fpage_tmE19__PRETTY_FUNCTION__
_ZZ18sys_thread_controlE12__FUNCTION__
_ZZ19finish_sys_schedulevE12__FUNCTION__
_ZZ20finish_exception_ipcvE12__FUNCTION__
_ZZ22setup_initial_mappingsP7space_tE19__PRETTY_FUNCTION__
_ZZ7sys_ipcE19__PRETTY_FUNCTION__
_ZZN15generic_space_t16handle_pagefaultEPvS0_NS_8access_eEbPFvvEE12__FUNCTION__
_ZZN15generic_space_t16handle_pagefaultEPvS0_NS_8access_eEbPFvvEE19__PRETTY_FUNCTION__
_ZZN18tcb_syscall_data_t12get_ipc_valsEvE12__FUNCTION__
_ZZN18tcb_syscall_data_t12get_ipc_valsEvE12__FUNCTION__
_ZZN18tcb_syscall_data_t12get_ipc_valsEvE12__FUNCTION__
_ZZN18tcb_syscall_data_t12get_ipc_valsEvE12__FUNCTION__
_ZZN18tcb_syscall_data_t12get_ipc_valsEvE12__FUNCTION__
_ZZN18thread_resources_t5purgeEP5tcb_tE19__PRETTY_FUNCTION__
_ZZN5kdb_t13cmd_dump_ptabEP11cmd_group_tE6spaces
_ZZN5kdb_t5entryEPvE8kdb_lock
_ZZN5tcb_t6unwindEPS_E19__PRETTY_FUNCTION__
_ZZN7space_t18window_share_fpageEPS_7fpage_tE19__PRETTY_FUNCTION__
_ZZN7space_t20flush_sharing_spacesEvE19__PRETTY_FUNCTION__
_ZZN7space_t23flush_sharing_on_deleteEvE19__PRETTY_FUNCTION__
_ashldi3
_clz_tab
_div0
__idle_tcb
__idle_utcb
__kdb_arch_cmd__abort
__kdb_arch_cmd__help
__kdb_arch_cmd__prior
__kdb_arch_cmd_dump_coproc
__kdb_arch_cmd_dump_cp15regs
__kdb_config_cmd__abort
__kdb_config_cmd__help
__kdb_config_cmd__prior
__kdb_config_cmd_mode_switch
__kdb_config_cmd_tid_format
__kdb_config_cmd_wordsize
__kdb_group_arch
__kdb_group_config
__kdb_group_root
__kdb_group_statistics
__kdb_group_tracebuf
__kdb_group_tracepoints
__kdb_root_cmd__abort
__kdb_root_cmd__help
__kdb_root_cmd__prior
__kdb_root_cmd_arch
__kdb_root_cmd_config
__kdb_root_cmd_dump_current_frame
__kdb_root_cmd_dump_frame
__kdb_root_cmd_dump_ptab
__kdb_root_cmd_go
__kdb_root_cmd_list_clists
__kdb_root_cmd_list_spaces
__kdb_root_cmd_memdump
__kdb_root_cmd_memdump_phys
__kdb_root_cmd_memdump_remote
__kdb_root_cmd_reboot
__kdb_root_cmd_show_clist
__kdb_root_cmd_show_dep_graph
__kdb_root_cmd_show_mutexes
__kdb_root_cmd_show_ready
__kdb_root_cmd_show_space
__kdb_root_cmd_show_tcb
__kdb_root_cmd_show_tcbext
__kdb_root_cmd_statistics
__kdb_root_cmd_tracebuffer
__kdb_root_cmd_tracepoints
__kdb_statistics_cmd__abort
__kdb_statistics_cmd__help
__kdb_statistics_cmd__prior
__kdb_statistics_cmd_kmem_stats
__kdb_tracebuf_cmd__abort
__kdb_tracebuf_cmd__help
__kdb_tracebuf_cmd__prior
__kdb_tracebuf_cmd_tb_dump
__kdb_tracebuf_cmd_tb_info
__kdb_tracebuf_cmd_tb_logmask
__kdb_tracebuf_cmd_tb_reset
__kdb_tracepoints_cmd__abort
__kdb_tracepoints_cmd__help
__kdb_tracepoints_cmd__prior
__kdb_tracepoints_cmd_tp_conf
__kdb_tracepoints_cmd_tp_conf_all
__kdb_tracepoints_cmd_tp_disable
__kdb_tracepoints_cmd_tp_enable
__kdb_tracepoints_cmd_tp_list
__kdb_tracepoints_cmd_tp_reset
__kernel_space_object
__kmem_group_kmem_clist
__kmem_group_kmem_clistids
__kmem_group_kmem_ll
__kmem_group_kmem_misc
__kmem_group_kmem_mutex
__kmem_group_kmem_mutexids
__kmem_group_kmem_pgtab
__kmem_group_kmem_root_clist
__kmem_group_kmem_space
__kmem_group_kmem_spaceids
__kmem_group_kmem_stack
__kmem_group_kmem_tcb
__kmem_group_kmem_trace
__kmem_group_kmem_utcb
__kmem_groups
__macro_set___kdb_group_arch_array
__macro_set___kdb_group_arch_count
__macro_set___kdb_group_config_array
__macro_set___kdb_group_config_count
__macro_set___kdb_group_root_array
__macro_set___kdb_group_root_count
__macro_set___kdb_group_statistics_array
__macro_set___kdb_group_statistics_count
__macro_set___kdb_group_tracebuf_array
__macro_set___kdb_group_tracebuf_count
__macro_set___kdb_group_tracepoints_array
__macro_set___kdb_group_tracepoints_count
__macro_set___kmem_groups_array
__macro_set___kmem_groups_count
__macro_set_kdb_initfuncs_array
__macro_set_kdb_initfuncs_count
__macro_set_tracepoint_set_array
__macro_set_tracepoint_set_count
__phys_addr_ram
__phys_addr_rom
__scheduler
__setentry___kdb_group_arch___kdb_arch_cmd__abort
__setentry___kdb_group_arch___kdb_arch_cmd__help
__setentry___kdb_group_arch___kdb_arch_cmd__prior
__setentry___kdb_group_arch___kdb_arch_cmd_dump_coproc
__setentry___kdb_group_arch___kdb_arch_cmd_dump_cp15regs
__setentry___kdb_group_config___kdb_config_cmd__abort
__setentry___kdb_group_config___kdb_config_cmd__help
__setentry___kdb_group_config___kdb_config_cmd__prior
__setentry___kdb_group_config___kdb_config_cmd_mode_switch
__setentry___kdb_group_config___kdb_config_cmd_tid_format
__setentry___kdb_group_config___kdb_config_cmd_wordsize
__setentry___kdb_group_root___kdb_root_cmd__abort
__setentry___kdb_group_root___kdb_root_cmd__help
__setentry___kdb_group_root___kdb_root_cmd__prior
__setentry___kdb_group_root___kdb_root_cmd_arch
__setentry___kdb_group_root___kdb_root_cmd_config
__setentry___kdb_group_root___kdb_root_cmd_dump_current_frame
__setentry___kdb_group_root___kdb_root_cmd_dump_frame
__setentry___kdb_group_root___kdb_root_cmd_dump_ptab
__setentry___kdb_group_root___kdb_root_cmd_go
__setentry___kdb_group_root___kdb_root_cmd_list_clists
__setentry___kdb_group_root___kdb_root_cmd_list_spaces
__setentry___kdb_group_root___kdb_root_cmd_memdump
__setentry___kdb_group_root___kdb_root_cmd_memdump_phys
__setentry___kdb_group_root___kdb_root_cmd_memdump_remote
__setentry___kdb_group_root___kdb_root_cmd_reboot
__setentry___kdb_group_root___kdb_root_cmd_show_clist
__setentry___kdb_group_root___kdb_root_cmd_show_dep_graph
__setentry___kdb_group_root___kdb_root_cmd_show_mutexes
__setentry___kdb_group_root___kdb_root_cmd_show_ready
__setentry___kdb_group_root___kdb_root_cmd_show_space
__setentry___kdb_group_root___kdb_root_cmd_show_tcb
__setentry___kdb_group_root___kdb_root_cmd_show_tcbext
__setentry___kdb_group_root___kdb_root_cmd_statistics
__setentry___kdb_group_root___kdb_root_cmd_tracebuffer
__setentry___kdb_group_root___kdb_root_cmd_tracepoints
__setentry___kdb_group_statistics___kdb_statistics_cmd__abort
__setentry___kdb_group_statistics___kdb_statistics_cmd__help
__setentry___kdb_group_statistics___kdb_statistics_cmd__prior
__setentry___kdb_group_statistics___kdb_statistics_cmd_kmem_stats
__setentry___kdb_group_tracebuf___kdb_tracebuf_cmd__abort
__setentry___kdb_group_tracebuf___kdb_tracebuf_cmd__help
__setentry___kdb_group_tracebuf___kdb_tracebuf_cmd__prior
__setentry___kdb_group_tracebuf___kdb_tracebuf_cmd_tb_dump
__setentry___kdb_group_tracebuf___kdb_tracebuf_cmd_tb_info
__setentry___kdb_group_tracebuf___kdb_tracebuf_cmd_tb_logmask
__setentry___kdb_group_tracebuf___kdb_tracebuf_cmd_tb_reset
__setentry___kdb_group_tracepoints___kdb_tracepoints_cmd__abort
__setentry___kdb_group_tracepoints___kdb_tracepoints_cmd__help
__setentry___kdb_group_tracepoints___kdb_tracepoints_cmd__prior
__setentry___kdb_group_tracepoints___kdb_tracepoints_cmd_tp_conf
__setentry___kdb_group_tracepoints___kdb_tracepoints_cmd_tp_conf_all
__setentry___kdb_group_tracepoints___kdb_tracepoints_cmd_tp_disable
__setentry___kdb_group_tracepoints___kdb_tracepoints_cmd_tp_enable
__setentry___kdb_group_tracepoints___kdb_tracepoints_cmd_tp_list
__setentry___kdb_group_tracepoints___kdb_tracepoints_cmd_tp_reset
__setentry___kmem_groups___kmem_group_kmem_clist
__setentry___kmem_groups___kmem_group_kmem_clistids
__setentry___kmem_groups___kmem_group_kmem_ll
__setentry___kmem_groups___kmem_group_kmem_misc
__setentry___kmem_groups___kmem_group_kmem_mutex
__setentry___kmem_groups___kmem_group_kmem_mutexids
__setentry___kmem_groups___kmem_group_kmem_pgtab
__setentry___kmem_groups___kmem_group_kmem_root_clist
__setentry___kmem_groups___kmem_group_kmem_space
__setentry___kmem_groups___kmem_group_kmem_spaceids
__setentry___kmem_groups___kmem_group_kmem_stack
__setentry___kmem_groups___kmem_group_kmem_tcb
__setentry___kmem_groups___kmem_group_kmem_trace
__setentry___kmem_groups___kmem_group_kmem_utcb
__setentry_tracepoint_set___tracepoint_ARM_DATA_ABORT
__setentry_tracepoint_set___tracepoint_ARM_FASS_RECYCLE
__setentry_tracepoint_set___tracepoint_ARM_PAGE_FAULT
__setentry_tracepoint_set___tracepoint_DEADLOCK_DETECTED
__setentry_tracepoint_set___tracepoint_EXCEPTION_IPC_GENERAL
__setentry_tracepoint_set___tracepoint_EXCEPTION_IPC_SYSCALL
__setentry_tracepoint_set___tracepoint_FASTPATH_ASYNC_IPC
__setentry_tracepoint_set___tracepoint_FPAGE_MAP
__setentry_tracepoint_set___tracepoint_FPAGE_OVERMAP
__setentry_tracepoint_set___tracepoint_FPAGE_READ
__setentry_tracepoint_set___tracepoint_FPAGE_UNMAP
__setentry_tracepoint_set___tracepoint_INTERRUPT
__setentry_tracepoint_set___tracepoint_IPC_TRANSFER
__setentry_tracepoint_set___tracepoint_KMEM_ALLOC
__setentry_tracepoint_set___tracepoint_KMEM_FREE
__setentry_tracepoint_set___tracepoint_PAGEFAULT_KERNEL
__setentry_tracepoint_set___tracepoint_PAGEFAULT_USER
__setentry_tracepoint_set___tracepoint_PREEMPTION_FAULT
__setentry_tracepoint_set___tracepoint_PREEMPTION_SIGNALED
__setentry_tracepoint_set___tracepoint_SYSCALL_CACHE_CONTROL
__setentry_tracepoint_set___tracepoint_SYSCALL_CAP_CONTROL
__setentry_tracepoint_set___tracepoint_SYSCALL_EXCHANGE_REGISTERS
__setentry_tracepoint_set___tracepoint_SYSCALL_INTERRUPT_CONTROL
__setentry_tracepoint_set___tracepoint_SYSCALL_IPC
__setentry_tracepoint_set___tracepoint_SYSCALL_MAP_CONTROL
__setentry_tracepoint_set___tracepoint_SYSCALL_MEMORY_COPY
__setentry_tracepoint_set___tracepoint_SYSCALL_MUTEX
__setentry_tracepoint_set___tracepoint_SYSCALL_MUTEX_CONTROL
__setentry_tracepoint_set___tracepoint_SYSCALL_PLATFORM_CONTROL
__setentry_tracepoint_set___tracepoint_SYSCALL_SCHEDULE
__setentry_tracepoint_set___tracepoint_SYSCALL_SECURITY_CONTROL
__setentry_tracepoint_set___tracepoint_SYSCALL_SPACE_CONTROL
__setentry_tracepoint_set___tracepoint_SYSCALL_SPACE_SWITCH
__setentry_tracepoint_set___tracepoint_SYSCALL_THREAD_CONTROL
__setentry_tracepoint_set___tracepoint_SYSCALL_THREAD_SWITCH
__setentry_tracepoint_set___tracepoint_TIMESLICE_EXPIRED
__setentry_tracepoint_set___tracepoint_UNWIND
__stack
__tracepoint_ARM_DATA_ABORT
__tracepoint_ARM_FASS_RECYCLE
__tracepoint_ARM_PAGE_FAULT
__tracepoint_DEADLOCK_DETECTED
__tracepoint_EXCEPTION_IPC_GENERAL
__tracepoint_EXCEPTION_IPC_SYSCALL
__tracepoint_FASTPATH_ASYNC_IPC
__tracepoint_FPAGE_MAP
__tracepoint_FPAGE_OVERMAP
__tracepoint_FPAGE_READ
__tracepoint_FPAGE_UNMAP
__tracepoint_INTERRUPT
__tracepoint_IPC_TRANSFER
__tracepoint_KMEM_ALLOC
__tracepoint_KMEM_FREE
__tracepoint_PAGEFAULT_KERNEL
__tracepoint_PAGEFAULT_USER
__tracepoint_PREEMPTION_FAULT
__tracepoint_PREEMPTION_SIGNALED
__tracepoint_SYSCALL_CACHE_CONTROL
__tracepoint_SYSCALL_CAP_CONTROL
__tracepoint_SYSCALL_EXCHANGE_REGISTERS
__tracepoint_SYSCALL_INTERRUPT_CONTROL
__tracepoint_SYSCALL_IPC
__tracepoint_SYSCALL_MAP_CONTROL
__tracepoint_SYSCALL_MEMORY_COPY
__tracepoint_SYSCALL_MUTEX
__tracepoint_SYSCALL_MUTEX_CONTROL
__tracepoint_SYSCALL_PLATFORM_CONTROL
__tracepoint_SYSCALL_SCHEDULE
__tracepoint_SYSCALL_SECURITY_CONTROL
__tracepoint_SYSCALL_SPACE_CONTROL
__tracepoint_SYSCALL_SPACE_SWITCH
__tracepoint_SYSCALL_THREAD_CONTROL
__tracepoint_SYSCALL_THREAD_SWITCH
__tracepoint_TIMESLICE_EXPIRED
__tracepoint_UNWIND
_udivdi3
_udivsi3
_umoddi3
_umodsi3
__vector_vaddr
_end
_end_init
_end_ram
_end_rom
_end_setlist
_end_sets
_kernel_init_stack
_kernel_space_pagetable
_start
_start_data
_start_init
_start_ram
_start_rom
_start_setlist
_start_sets
add_mapping_init
add_rom_mapping_init
arch
arch/arm/pistachio/src/notify.spp
arch/arm/pistachio/src/notify.spp
arch/arm/pistachio/src/notify.spp
arch/arm/pistachio/src/notify.spp
arch/arm/pistachio/src/notify.spp
arch/arm/pistachio/src/notify.spp
arch/arm/pistachio/src/notify.spp
arch/arm/pistachio/src/notify.spp
arch/arm/pistachio/src/notify.spp
arch/arm/pistachio/v5/src/post_syscall.spp
arch/arm/pistachio/v5/src/post_syscall.spp
arch/arm/pistachio/v5/src/post_syscall.spp
arch/arm/pistachio/v5/src/post_syscall.spp
arch/arm/pistachio/v5/src/post_syscall.spp
arch/arm/pistachio/v5/src/post_syscall.spp
arch/arm/pistachio/v5/src/post_syscall.spp
arch/arm/pistachio/v5/src/post_syscall.spp
arch/arm/pistachio/v5/src/post_syscall.spp
arch/arm/pistachio/v5/src/post_syscall.spp
arch/arm/pistachio/v5/src/post_syscall.spp
arch/arm/pistachio/v5/src/post_syscall.spp
arch/arm/pistachio/v5/src/post_syscall.spp
arch/arm/pistachio/v5/src/thread_start.spp
arch/arm/pistachio/v5/src/thread_start.spp
arch/arm/pistachio/v5/src/thread_start.spp
arch/arm/pistachio/v5/src/thread_start.spp
arch/arm/pistachio/v5/src/thread_start.spp
arch/arm/pistachio/v5/src/thread_start.spp
arch/arm/pistachio/v5/src/thread_start.spp
arch/arm/pistachio/v5/src/thread_start.spp
arch/arm/pistachio/v5/src/thread_start.spp
arch/arm/pistachio/v5/src/traps.spp
arch/arm/pistachio/v5/src/traps.spp
arch/arm/pistachio/v5/src/traps.spp
arch/arm/pistachio/v5/src/traps.spp
arch/arm/pistachio/v5/src/traps.spp
arch/arm/pistachio/v5/src/traps.spp
arch/arm/pistachio/v5/src/traps.spp
arch/arm/pistachio/v5/src/traps.spp
arch/arm/pistachio/v5/src/traps.spp
arch/arm/pistachio/v5/src/traps.spp
arch/arm/pistachio/v5/src/traps.spp
arch/arm/pistachio/v5/src/traps.spp
arch/arm/pistachio/v5/src/traps.spp
arch/arm/pistachio/v5/src/traps.spp
arch/arm/pistachio/v5/src/traps.spp
arch_init
arm_abort_return
arm_abort_return_kernel
arm_common_return
arm_data_abort_exception
arm_fass
arm_finish_callback_from_interrupt
arm_finish_callback_restoreregs
arm_fiq_exception
arm_high_vector
arm_irq_exception
arm_memory_abort
arm_misc_syscall
arm_perform_callback_from_interrupt
arm_perform_callback_saveregs
arm_prefetch_abort_exception
arm_reset_exception
arm_return_from_notify0
arm_return_from_notify1
arm_std_syscall
arm_swi_exception
arm_swi_syscall
arm_syscall_vectors
arm_undefined_inst_exception
arm_utcb_page
asid.cc
assert.cc
async_fp_helper
async_fp_helper_asm
async_no_acceptor
async_no_trigger
breakin_disabled
build/pistachio/include/compat/c.h
build/pistachio/include/compat/c.h
build/pistachio/include/compat/c.h
build/pistachio/include/compat/c.h
build/pistachio/include/compat/c.h
build/pistachio/include/compat/c.h
build/pistachio/include/compat/c.h
build/pistachio/include/compat/c.h
build/pistachio/include/compat/c.h
build/pistachio/include/compat/c.h
build/pistachio/include/compat/toolchain/gnu/c.h
build/pistachio/include/compat/toolchain/gnu/c.h
build/pistachio/include/compat/toolchain/gnu/c.h
build/pistachio/include/compat/toolchain/gnu/c.h
build/pistachio/include/compat/toolchain/gnu/c.h
build/pistachio/include/kernel/arch/asm.h
build/pistachio/include/kernel/arch/asm.h
build/pistachio/include/kernel/arch/asm.h
build/pistachio/include/kernel/arch/asm.h
build/pistachio/include/kernel/arch/asm.h
build/pistachio/include/kernel/arch/asm.h
build/pistachio/include/kernel/arch/asm.h
build/pistachio/include/kernel/arch/asm.h
build/pistachio/include/kernel/arch/asm_gnu.h
build/pistachio/include/kernel/arch/asm_gnu.h
build/pistachio/include/kernel/arch/asm_gnu.h
build/pistachio/include/kernel/arch/asm_gnu.h
build/pistachio/include/kernel/arch/asm_gnu.h
build/pistachio/include/kernel/arch/config.h
build/pistachio/include/kernel/arch/config.h
build/pistachio/include/kernel/arch/config.h
build/pistachio/include/kernel/arch/config.h
build/pistachio/include/kernel/arch/config.h
build/pistachio/include/kernel/arch/config.h
build/pistachio/include/kernel/arch/config.h
build/pistachio/include/kernel/arch/config.h
build/pistachio/include/kernel/arch/config.h
build/pistachio/include/kernel/arch/config.h
build/pistachio/include/kernel/arch/config.h
build/pistachio/include/kernel/arch/config.h
build/pistachio/include/kernel/arch/config.h
build/pistachio/include/kernel/arch/config.h
build/pistachio/include/kernel/arch/config.h
build/pistachio/include/kernel/arch/config.h
build/pistachio/include/kernel/arch/config.h
build/pistachio/include/kernel/arch/config.h
build/pistachio/include/kernel/arch/config.h
build/pistachio/include/kernel/arch/config.h
build/pistachio/include/kernel/arch/config.h
build/pistachio/include/kernel/arch/config.h
build/pistachio/include/kernel/arch/config.h
build/pistachio/include/kernel/arch/config.h
build/pistachio/include/kernel/arch/config.h
build/pistachio/include/kernel/arch/config.h
build/pistachio/include/kernel/arch/config.h
build/pistachio/include/kernel/arch/config.h
build/pistachio/include/kernel/arch/config.h
build/pistachio/include/kernel/arch/config.h
build/pistachio/include/kernel/arch/page.h
build/pistachio/include/kernel/arch/page.h
build/pistachio/include/kernel/arch/page.h
build/pistachio/include/kernel/arch/page.h
build/pistachio/include/kernel/arch/page.h
build/pistachio/include/kernel/arch/ver/config.h
build/pistachio/include/kernel/arch/ver/config.h
build/pistachio/include/kernel/arch/ver/config.h
build/pistachio/include/kernel/arch/ver/config.h
build/pistachio/include/kernel/arch/ver/config.h
build/pistachio/include/kernel/arch/ver/utcb.h
build/pistachio/include/kernel/arch/ver/utcb.h
build/pistachio/include/kernel/arch/ver/utcb.h
build/pistachio/include/kernel/config.h
build/pistachio/include/kernel/config.h
build/pistachio/include/kernel/config.h
build/pistachio/include/kernel/config.h
build/pistachio/include/kernel/config.h
build/pistachio/include/kernel/config.h
build/pistachio/include/kernel/config.h
build/pistachio/include/kernel/config.h
build/pistachio/include/kernel/config.h
build/pistachio/include/kernel/config.h
build/pistachio/include/kernel/cpu/syscon.h
build/pistachio/include/kernel/cpu/syscon.h
build/pistachio/include/kernel/cpu/syscon.h
build/pistachio/include/kernel/cpu/syscon.h
build/pistachio/include/kernel/cpu/syscon.h
build/pistachio/include/kernel/l4.h
build/pistachio/include/kernel/l4.h
build/pistachio/include/kernel/l4.h
build/pistachio/include/kernel/l4.h
build/pistachio/include/kernel/l4.h
build/pistachio/include/kernel/l4.h
build/pistachio/include/kernel/l4.h
build/pistachio/include/kernel/l4.h
build/pistachio/include/kernel/l4.h
build/pistachio/include/kernel/macros.h
build/pistachio/include/kernel/macros.h
build/pistachio/include/kernel/macros.h
build/pistachio/include/kernel/macros.h
build/pistachio/include/kernel/macros.h
build/pistachio/include/kernel/macros.h
build/pistachio/include/kernel/macros.h
build/pistachio/include/kernel/macros.h
build/pistachio/include/kernel/macros.h
build/pistachio/include/kernel/macros.h
build/pistachio/include/kernel/macros.h
build/pistachio/include/kernel/macros.h
build/pistachio/include/kernel/macros.h
build/pistachio/include/kernel/macros.h
build/pistachio/include/kernel/macros.h
build/pistachio/include/kernel/types.h
build/pistachio/include/kernel/types.h
build/pistachio/include/kernel/types.h
build/pistachio/include/kernel/types.h
build/pistachio/include/kernel/types.h
build/pistachio/include/l4/arch/config.h
build/pistachio/include/l4/arch/config.h
build/pistachio/include/l4/arch/config.h
build/pistachio/include/l4/arch/config.h
build/pistachio/include/l4/arch/config.h
build/pistachio/include/l4/arch/syscalls_asm.h
build/pistachio/include/l4/arch/syscalls_asm.h
build/pistachio/include/l4/arch/syscalls_asm.h
build/pistachio/include/l4/arch/vregs.h
build/pistachio/include/l4/arch/vregs.h
build/pistachio/include/l4/arch/vregs.h
build/pistachio/include/l4/arch/vregs.h
build/pistachio/include/l4/arch/vregs.h
build/pistachio/include/l4/arch/vregs.h
build/pistachio/include/l4/cust/utcb.h
build/pistachio/include/l4/cust/utcb.h
build/pistachio/include/l4/cust/vregs.h
build/pistachio/include/l4/cust/vregs.h
build/pistachio/include/l4/macros.h
build/pistachio/include/l4/macros.h
build/pistachio/include/l4/macros.h
build/pistachio/include/l4/macros.h
build/pistachio/include/l4/macros.h
build/pistachio/object/pistachio/include/arch/asm.h
build/pistachio/object/pistachio/include/arch/asm.h
build/pistachio/object/pistachio/include/arch/asm.h
build/pistachio/object/pistachio/include/arch/asm.h
build/pistachio/object/pistachio/include/arch/asm.h
build/pistachio/object/pistachio/include/arch/exception.h
build/pistachio/object/pistachio/include/arch/fass.h
build/pistachio/object/pistachio/include/arch/fass.h
build/pistachio/object/pistachio/include/arch/globals.h
build/pistachio/object/pistachio/include/arch/globals.h
build/pistachio/object/pistachio/include/arch/globals.h
build/pistachio/object/pistachio/include/arch/globals.h
build/pistachio/object/pistachio/include/arch/syscalls.h
build/pistachio/object/pistachio/include/arch/syscalls.h
build/pistachio/object/pistachio/include/arch/syscalls.h
build/pistachio/object/pistachio/include/arch/syscalls.h
build/pistachio/object/pistachio/include/arch/syscalls.h
build/pistachio/object/pistachio/include/arch/syscalls.h
build/pistachio/object/pistachio/include/arch/syscalls.h
build/pistachio/object/pistachio/include/arch/syscalls.h
build/pistachio/object/pistachio/include/arch/syscalls.h
build/pistachio/object/pistachio/include/arch/syscalls.h
build/pistachio/object/pistachio/include/arch/syscalls.h
build/pistachio/object/pistachio/include/arch/syscalls.h
build/pistachio/object/pistachio/include/arch/thread.h
build/pistachio/object/pistachio/include/arch/thread.h
build/pistachio/object/pistachio/include/arch/thread.h
build/pistachio/object/pistachio/include/arch/thread.h
build/pistachio/object/pistachio/include/arch/types.h
build/pistachio/object/pistachio/include/asmsyms.h
build/pistachio/object/pistachio/include/asmsyms.h
build/pistachio/object/pistachio/include/asmsyms.h
build/pistachio/object/pistachio/include/asmsyms.h
build/pistachio/object/pistachio/include/context_layout.h
build/pistachio/object/pistachio/include/context_layout.h
build/pistachio/object/pistachio/include/context_layout.h
build/pistachio/object/pistachio/include/ktcb_layout.h
build/pistachio/object/pistachio/include/ktcb_layout.h
build/pistachio/object/pistachio/include/tcb_layout.h
build/pistachio/object/pistachio/include/tcb_layout.h
build/pistachio/object/pistachio/include/tcb_layout.h
build/pistachio/object/pistachio/include/tcb_layout.h
c_schedule
cache.cc
caps.cc
check_async_ipc
check_async_ipc
check_async_irq
check_breakin.cc
check_coproc_fault
check_other_syscalls
clist.cc
clist.cc
clist_lookup
cmd.cc
config
console.cc
console.cc
copy_loop
data.cc
debug.cc
debug.cc
decode_reply_cap
do_excep_trace
do_ipc_copy
do_ipc_trace
done_mutex_loop
end_excep_trace
end_ipc_trace
endpoint.cc
enter_kdebug
enter_kdebug_c
entry.cc
exception.cc
exception.cc
exception_do_ipc
exception_fastpath_recover
exception_slowpath
exregs.cc
fass.cc
fast_path_recover
fast_path_switch_to
fast_reply_exception
fastpath.cc
fiq_vec
frame.cc
free_tcb_idx
generic_execution_units
generic_irq
global_mutexes_list
global_present_list
global_spaces_list
handle_interrupt
hw_pgshifts
init.cc
init.cc
init.cc
init_arm_globals
init_memory
init_struct
initial_to_user
input.cc
input_api.cc
intctrl.cc
interrupt.cc
interrupt.cc
ipc.cc
ipc_complete_switch_to
ipc_complete_switch_to_noex
ipc_fastpath_check_inheritance_call
ipc_fastpath_create_dependency
ipc_fastpath_drop_dependency
ipc_fastpath_drop_dependency_after_dequeue
ipc_fastpath_long_dequeue_queue_item
ipc_fastpath_post_create_dependency
ipc_fastpath_post_drop_dependency
ipc_return_user
ipc_slowpath
ipc_syscall_return
kdb
kdb_initfuncs
kdb_last_dump
kdb_tid_format
kdebug_entries
kernel_access
kernel_interrupt
kernel_version_string
kmem
kmem_clist
kmem_clistids
kmem_ll
kmem_misc
kmem_mutex
kmem_mutexids
kmem_pgtab
kmem_root_clist
kmem_space
kmem_spaceids
kmem_stack
kmem_tcb
kmem_trace
kmem_utcb
kmemory.cc
kmemory.cc
l0_allocator
l1_allocator
l2cache.cc
lib.cc
libgcc2.c
libgcc2.c
libgcc2.c
libgcc2.c
linear_ptab_dump.cc
linear_ptab_walker.cc
linear_ptab_walker.cc
macro_set.cc
macro_sets.cc
map.cc
memcpy
memcpy_buf
memdump.cc
memdump_wordsize
memset
mp
mutex.cc
mutex.cc
mutex_list_lock
mutex_loop_start
mutex_pool
mutexid_table
names.cc
no_syscall_except_ipc_copy
normal_ipc_copy_mrs
num_chunks
num_tcbs
panic.cc
pistachio/include/l4.h
pistachio/include/l4.h
pistachio/include/l4.h
pistachio/include/l4.h
pistachio/include/l4.h
pistachio/include/l4.h
pistachio/include/l4.h
pistachio/include/l4.h
pistachio/include/l4.h
pistachio/include/l4.h
pistachio/include/l4.h
pistachio/include/l4.h
pistachio/include/l4.h
pistachio/include/l4.h
pistachio/include/l4.h
pistachio/include/l4.h
plat.cc
platform.cc
platform/pxa/pistachio/src/head.spp
platform/pxa/pistachio/src/head.spp
platform/pxa/pistachio/src/head.spp
platform/pxa/pistachio/src/head.spp
platform_impl.cc
platform_support.cc
platsupport.cc
prepost.cc
present_list_lock
print.cc
printf
prioqueue.cc
profile.cc
profiling.cc
reboot.cc
reboot.cc
reg.cc
remote_memcpy.cc
reset_exception
resources.cc
resources.cc
roinit.cc
root
root_clist
roottask_space
schedule.cc
schedule.cc
scheduler_ptr
security.cc
send_exception_ipc
serial_regs
show_processor_info
slow_excep_trace
slow_ipc_trace
smallalloc.cc
smp.cc
space.cc
space.cc
space.cc
space.cc
space_lookup
space_pool
space_switch.cc
spaces_list_lock
stack_top
start_post_syscall_callback
startup_system_mmu
statistics
strcpy
string.cc
syncpoint.cc
sys_arm_misc
sys_cache_control
sys_cap_control
sys_exchange_registers
sys_exchange_registers_exargs
sys_interrupt_control
sys_ipc
sys_map_control
sys_memory_copy
sys_mutex
sys_mutex_control
sys_platform_control
sys_schedule
sys_schedule_exargs
sys_security_control
sys_space_control
sys_space_control_exargs
sys_space_switch
sys_thread_control
sys_thread_control_exargs
sys_thread_switch
syscall_return
tb_irq
tb_irq_masked
tb_irq_pending
tcb.cc
tcb_array
tcb_size
thread.cc
thread.cc
thread.cc
thread.cc
tid_format.cc
time_ptr
timer.cc
timer_tick_length
tlb.cc
tmp_r14
tmp_spsr
to_tcb_decoded
tp_list
trace_buffer
trace_lock
trace_names
tracebuf
tracebuffer.cc
tracebuffer.cc
traceids.cc
tracepoint_set
tracepoints
tracepoints.cc
undefined_exception
user_do_interrupt
vector_arm_abort_return
vector_arm_common_return
vector_arm_data_abort_exception
vector_arm_fiq_exception
vector_arm_high_vector
vector_arm_irq_exception
vector_arm_misc_syscall
vector_arm_prefetch_abort_exception
vector_arm_reset_exception
vector_arm_swi_exception
vector_arm_swi_syscall
vector_arm_undefined_inst_exception
vector_ipc_syscall_return
vector_kernel_access
vector_scheduler_ptr
vector_stack_top
vector_sys_exchange_registers_exargs
vector_sys_schedule_exargs
vector_sys_space_control_exargs
vector_sys_thread_control_exargs
vector_syscall_return
vector_time_ptr
vector_tmp_r14
vector_tmp_spsr
vfp.cc
xscale_match


Name
























$a
$a
$a
$a
$a
$a
$a
$a
$a
$a
$a
$a
$a
$a
$a
$a
$a
$a
$a
$a
$a
$a
$a
$a
$a
$a
$a
$a
$a
$a
$a
$a
$a
$a
$a
$a
$a
$a
$a
$a
$a
$a
$a
$a
$a
$a
$a
$a
$a
$a
$a
$a
$a
$a
$a
$a
$a
$a
$a
$a
$a
$a
$a
$a
$a
$a
$a
$a
$a
$a
$a
$a
$a
$a
$a
$a
$a
$a
$a
$a
$a
$a
$a
$a
$a
$a
$a
$a
$a
$a
$a
$a
$a
$a
$a
$a
$a
$a
$a
$a
$a
$a
$a
$a
$a
$a
$a
$a
$a
$a
$a
$a
$a
$a
$a
$a
$a
$a
$a
$a
$a
$a
$a
$a
$a
$a
$a
$a
$a
$a
$a
$a
$a
$a
$a
$a
$a
$a
$a
$a
$a
$a
$a
$a
$a
$a
$a
$a
$a
$a
$a
$a
$a
$a
$a
$a
$a
$a
$a
$a
$a
$a
$a
$a
$a
$a
$a
$a
$a
$a
$a
$a
$a
$a
$a
$a
$a
$a
$a
$a
$a
$a
$a
$a
$a
$a
$a
$a
$a
$a
$a
$a
$a
$a
$a
$a
$a
$a
$a
$a
$a
$a
$a
$a
$a
$a
$a
$a
$a
$a
$a
$a
$a
$a
$a
$a
$a
$a
$a
$a
$a
$a
$a
$a
$a
$a
$a
$a
$a
$a
$a
$a
$a
$a
$a
$a
$a
$a
$a
$a
$a
$a
$a
$a
$a
$a
$a
$a
$a
$a
$a
$a
$a
$a
$a
$a
$a
$a
$a
$a
$a
$a
$a
$a
$a
$a
$a
$a
$a
$a
$a
$a
$a
$a
$a
$a
$a
$a
$a
$a
$a
$a
$a
$a
$a
$a
$a
$a
$a
$a
$a
$a
$a
$a
$a
$a
$a
$a
$a
$a
$a
$a
$a
$a
$a
$a
$a
$a
$a
$a
$a
$a
$a
$a
$a
$a
$a
$a
$a
$a
$a
$a
$a
$a
$a
$a
$a
$a
$a
$a
$a
$a
$a
$a
$a
$a
$a
$a
$a
$a
$a
$a
$d
$d
$d
$d
$d
$d
$d
$d
$d
$d
$d
$d
$d
$d
$d
$d
$d
$d
$d
$d
$d
$d
$d
$d
$d
$d
$d
$d
$d
$d
$d
$d
$d
$d
$d
$d
$d
$d
$d
$d
$d
$d
$d
$d
$d
$d
$d
$d
$d
$d
$d
$d
$d
$d
$d
$d
$d
$d
$d
$d
$d
$d
$d
$d
$d
$d
$d
$d
$d
$d
$d
$d
$d
$d
$d
$d
$d
$d
$d
$d
$d
$d
$d
$d
$d
$d
$d
$d
$d
$d
$d
$d
$d
$d
$d
$d
$d
$d
$d
$d
$d
$d
$d
$d
$d
$d
$d
$d
$d
$d
$d
$d
$d
$d
$d
$d
$d
$d
$d
$d
$d
$d
$d
$d
$d
$d
$d
$d
$d
$d
$d
$d
$d
$d
$d
$d
$d
$d
$d
$d
$d
$d
$d
$d
$d
$d
$d
$d
$d
$d
$d
$d
$d
$d
$d
$d
$d
$d
$d
$d
$d
$d
$d
$d
$d
$d
$d
$d
$d
$d
$d
$d
$d
$d
$d
$d
$d
$d
$d
$d
$d
$d
$d
$d
$d
$d
$d
$d
$d
$d
$d
$d
$d
$d
$d
$d
$d
$d
$d
$d
$d
$d
$d
$d
$d
$d
$d
$d
$d
$d
$d
$d
$d
$d
$d
$d
$d
$d
$d
$d
$d
$d
$d
$d
$d
$d
$d
$d
$d
$d
$d
$d
$d
$d
$d
$d
$d
$d
$d
$d
$d
$d
$d
$d
$d
$d
$d
$d
$d
$d
$d
$d
$d
$d
$d
$d
$d
$d
$d
$d
$d
$d
$d
$d
$d
$d
$d
$d
$d
$d
$d
$d
$d
$d
$d
$d
$d
$d
$d
$d
$d
$d
$d
$d
$d
$d
$d
$d
$d
$d
$d
$d
$d
$d
$d
$d
$d
$d
$d
$d
$d
$d
$d
$d
$d
$d
$d
$d
$d
$d
$d
$d
$d
$d
$d
$d
$d
$d
$d
$d
$d
$d
$d
$d
$d
$d
$d
$d
$d
$d
$d
$d
$d
$d
$d
$d
$d
$d
$d
$d
$d
$d
$d
$d
$d
$d
$d
$d
$d
$d
$d
$d
$d
$d
$d
$d
$d
$d
$d
$d
$d
$d
$d
$d
$d
$d
$d
$d
$d
$d
$d
$d
$d
$d
$d
$d
$d
$d
$d
$d
$d
$d
$d
$d
$d
$d
$d
$d
$d
$d
$d
$d
$d
$d
$d
$d
$d
$d
$d
$d
$d
$d
$d
$d
$d
$d
$d
$d
$d
$d
$d
$d
$d
$d
$d
$d
$d
$d
$d
$d
$d
$d
$d
$d
$d
$d
$d
$d
$d
$d
.fend_vector_arm_abort_return
.fend_vector_arm_common_return
.fend_vector_arm_data_abort_exception
.fend_vector_arm_finish_callback_from_interrupt
.fend_vector_arm_finish_callback_restoreregs
.fend_vector_arm_fiq_exception
.fend_vector_arm_high_vector
.fend_vector_arm_irq_exception
.fend_vector_arm_misc_syscall
.fend_vector_arm_perform_callback_from_interrupt
.fend_vector_arm_perform_callback_saveregs_full
.fend_vector_arm_perform_callback_saveregs_partial
.fend_vector_arm_prefetch_abort_exception
.fend_vector_arm_reset_exception
.fend_vector_arm_swi_exception
.fend_vector_arm_swi_syscall
.fend_vector_arm_undefined_inst_exception
.fend_vector_ipc_syscall_return
.fend_vector_sys_exchange_registers_exargs
.fend_vector_sys_schedule_exargs
.fend_vector_sys_space_control_exargs
.fend_vector_sys_thread_control_exargs
.fend_vector_syscall_return
/home/tsewell/crosstool-0.38/build/arm-linux/gcc-3.4.4-glibc-2.3.5/gcc-3.4.4/gcc/config/arm/ieee754-df.S
/home/tsewell/crosstool-0.38/build/arm-linux/gcc-3.4.4-glibc-2.3.5/gcc-3.4.4/gcc/config/arm/ieee754-df.S
/home/tsewell/crosstool-0.38/build/arm-linux/gcc-3.4.4-glibc-2.3.5/gcc-3.4.4/gcc/config/arm/ieee754-df.S
/home/tsewell/crosstool-0.38/build/arm-linux/gcc-3.4.4-glibc-2.3.5/gcc-3.4.4/gcc/config/arm/ieee754-sf.S
/home/tsewell/crosstool-0.38/build/arm-linux/gcc-3.4.4-glibc-2.3.5/gcc-3.4.4/gcc/config/arm/ieee754-sf.S
/home/tsewell/crosstool-0.38/build/arm-linux/gcc-3.4.4-glibc-2.3.5/gcc-3.4.4/gcc/config/arm/ieee754-sf.S
/home/tsewell/crosstool-0.38/build/arm-linux/gcc-3.4.4-glibc-2.3.5/gcc-3.4.4/gcc/config/arm/lib1funcs.asm
/home/tsewell/crosstool-0.38/build/arm-linux/gcc-3.4.4-glibc-2.3.5/gcc-3.4.4/gcc/config/arm/lib1funcs.asm
/home/tsewell/crosstool-0.38/build/arm-linux/gcc-3.4.4-glibc-2.3.5/gcc-3.4.4/gcc/config/arm/lib1funcs.asm
/home/tsewell/crosstool-0.38/build/arm-linux/gcc-3.4.4-glibc-2.3.5/gcc-3.4.4/gcc/config/arm/lib1funcs.asm
/home/tsewell/crosstool-0.38/build/arm-linux/gcc-3.4.4-glibc-2.3.5/gcc-3.4.4/gcc/config/arm/lib1funcs.asm
/home/tsewell/crosstool-0.38/build/arm-linux/gcc-3.4.4-glibc-2.3.5/gcc-3.4.4/gcc/config/arm/lib1funcs.asm
/home/tsewell/crosstool-0.38/build/arm-linux/gcc-3.4.4-glibc-2.3.5/gcc-3.4.4/gcc/config/arm/lib1funcs.asm
/home/tsewell/crosstool-0.38/build/arm-linux/gcc-3.4.4-glibc-2.3.5/gcc-3.4.4/gcc/config/arm/lib1funcs.asm
/home/tsewell/crosstool-0.38/build/arm-linux/gcc-3.4.4-glibc-2.3.5/gcc-3.4.4/gcc/config/arm/lib1funcs.asm
/home/tsewell/crosstool-0.38/build/arm-linux/gcc-3.4.4-glibc-2.3.5/gcc-3.4.4/gcc/config/arm/lib1funcs.asm
/home/tsewell/crosstool-0.38/build/arm-linux/gcc-3.4.4-glibc-2.3.5/gcc-3.4.4/gcc/config/arm/lib1funcs.asm
/home/tsewell/crosstool-0.38/build/arm-linux/gcc-3.4.4-glibc-2.3.5/gcc-3.4.4/gcc/config/arm/lib1funcs.asm
<built-in>
<built-in>
<built-in>
<built-in>
<built-in>
<built-in>
<built-in>
<command line>
<command line>
<command line>
<command line>
<command line>
<command line>
<command line>
DCACHE_LINE_SIZE
DCACHE_SETS
DCACHE_SIZE
DCACHE_WAYS
ICACHE_LINE_SIZE
ICACHE_SETS
ICACHE_SIZE
ICACHE_WAYS
L1
L1
_GLOBAL_OFFSET_TABLE_
_Z10dump_mutexP7mutex_t
_Z10free_spaceP7space_t
_Z10full_flushv
_Z10get_choicePKcS0_c
_Z10get_stringm
_Z10get_threadPKc
_Z10init_hellov
_Z10init_mutexv
_Z11halt_threadP5tcb_tPFvvE
_Z11idle_threadv
_Z11kdb_get_tcbv
_Z11kdebug_initv
_Z11print_dec64yibbbc
_Z11print_hex64yiibb
_Z11print_mutexmmmb
_Z11print_spacemmmb
_Z11range_flushv
_Z11restart_ipcv
_Z11switch_fromP5tcb_tPFvvE
_Z11tb_allocatemPm
_Z11valid_space9spaceid_t
_Z12allocate_tcb10threadid_t
_Z12generic_initv
_Z12init_consolev
_Z12kdebug_entryPv
_Z12memdump_loopP7space_tPv
_Z12mutex_wakeupv
_Z12print_formatm
_Z12print_headerv
_Z12print_stringPKcii
_Z12tb_log_eventm
_Z12tb_log_tracemPcz
_Z12tb_reply_irqv
_Z13do_ipc_helperv
_Z13init_clistidsv
_Z13init_spaceidsv
_Z13print_hex_sepmiPKc
_Z13resume_threadP5tcb_tPFvvE
_Z14allocate_space9spaceid_tP7clist_t
_Z14arm_dump_frameP17arm_irq_context_t
_Z14get_key_stringcPKc
_Z14print_cmd_pathP11cmd_group_t
_Z14return_successv
_Z14tb_irq_controlb
_Z14thread_startupv
_Z15init_root_clistv
_Z15print_tlb_entrymmmmb
_Z16__assert_failurePKc
_Z16find_kernel_heapPmS_
_Z16handle_ipc_errorv
_Z16init_all_threadsv
_Z16init_tracebufferv
_Z16memory_copy_loopv
_Z16range_flush_fullv
_Z17finish_kernel_ipcv
_Z17init_kernel_spacev
_Z17init_root_serversv
_Z17print_cache_indexm
_Z18create_idle_threadv
_Z18create_root_server10threadid_t7fpage_tm
_Z18init_tcb_allocatorv
_Z18kdb_breakin_enablev
_Z19finish_sys_schedulev
_Z19halt_current_threadPFvvE
_Z19hybrid_mutex_wakeupv
_Z19init_arm_interruptsv
_Z19init_kernel_threadsv
_Z19is_breakin_disabledv
_Z19kdb_breakin_disablev
_Z19kdb_breakin_handleri
_Z19kdb_set_object_name13object_type_emPKc
_Z19kernel_tlb_lockdownv
_Z19memory_copy_recoverv
_Z19set_thread_handlersP5tcb_t10threadid_tS1_S1_
_Z20finish_exception_ipcv
_Z20finish_perform_exregv
_Z20get_ptab_dump_rangesPPvPmPN7pgent_t8pgsize_eE
_Z20kdebug_check_breakinv
_Z21acquire_read_lock_tcbP5tcb_t
_Z21return_ipc_error_recvP5tcb_tS0_S0_m
_Z21return_ipc_error_sendP5tcb_tS0_S0_m
_Z22enqueue_tcb_and_returnP5tcb_tS0_PFvvE
_Z22print_evtmon_registersv
_Z22send_vfp_exception_ipcP17arm_irq_context_tPFvvE
_Z22setup_initial_mappingsP7space_t
_Z24abort_sys_thread_controlv
_Z24return_failure_pagefaultv
_Z25finish_exchange_registersv
_Z25finish_sys_thread_controlv
_Z27lookup_tcb_by_handle_lockedm
_Z29finish_send_vfp_exception_ipcv
_Z4getcb
_Z4putcc
_Z7__panicv
_Z7get_decPKcmS0_
_Z7get_hexPKcmS0_
_Z7get_tcbPv
_Z7memdumpP7space_tPv
_Z7str2intPKciPmm
_Z7strncmpPcS_i
_Z8dump_tcbP5tcb_t
_Z8free_tcbP5tcb_t
_Z9do_printfPKcPv
_Z9dump_utcbP5tcb_t
_Z9get_framev
_Z9get_spacePKc
_Z9next_linkP5tcb_t
_Z9print_decmibbbc
_Z9print_hexmiibb
_Z9print_tcbmmmb
_Z9print_tid10threadid_tmmb
_Z9switch_toP5tcb_tS0_
_ZN10endpoint_t12dequeue_recvEP5tcb_t
_ZN10endpoint_t12dequeue_sendEP5tcb_t
_ZN10endpoint_t12enqueue_recvEP5tcb_t
_ZN10endpoint_t12enqueue_sendEP5tcb_t
_ZN10endpoint_t4initEP5tcb_t
_ZN11cmd_group_t15interact_by_keyEv
_ZN11cmd_group_t19interact_by_commandEv
_ZN11cmd_group_t8interactEPS_Pc
_ZN11macro_set_t3getEm
_ZN11macro_set_t4nextEv
_ZN11macro_set_t4sizeEv
_ZN11macro_set_t5printEv
_ZN11macro_set_t5resetEv
_ZN11scheduler_t11do_scheduleEP5tcb_tmmm
_ZN11scheduler_t12current_timeE
_ZN11scheduler_t13fast_scheduleEP5tcb_tNS_20fast_schedule_type_eES1_PFvvEm
_ZN11scheduler_t14smt_rescheduleEP5tcb_t
_ZN11scheduler_t16end_of_timesliceEP5tcb_t
_ZN11scheduler_t17set_active_threadEP5tcb_tS1_
_ZN11scheduler_t20get_highest_priorityEv
_ZN11scheduler_t22set_effective_priorityEP5tcb_ti
_ZN11scheduler_t26release_and_reschedule_tcbEP5tcb_t
_ZN11scheduler_t4initEb
_ZN11scheduler_t5startEm
_ZN11scheduler_t5yieldEP5tcb_tS1_PFvvE
_ZN11scheduler_t8scheduleEP5tcb_tPFvvEm
_ZN11syncpoint_t13is_deadlockedEP5tcb_tPiS2_
_ZN11syncpoint_t14become_donateeEP5tcb_t
_ZN11syncpoint_t15dequeue_blockedEP5tcb_t
_ZN11syncpoint_t15enqueue_blockedEP5tcb_t
_ZN11syncpoint_t15release_donateeEv
_ZN11syncpoint_t15report_deadlockEP5tcb_tii
_ZN11syncpoint_t18enqueue_tcb_sortedEP5tcb_t
_ZN11syncpoint_t25propagate_priority_changeEv
_ZN11syncpoint_t27propagate_priority_increaseEi
_ZN11syncpoint_t4initEP5tcb_t
_ZN11syncpoint_t5blockEP5tcb_t
_ZN11syncpoint_t7refreshEP5tcb_t
_ZN11syncpoint_t7unblockEP5tcb_t
_ZN12asid_cache_t6lookupEs
_ZN12asid_cache_t8allocateEP7space_tP6asid_t
_ZN12asid_cache_t9set_validEss
_ZN12mutex_user_t10get_holderEP5tcb_t
_ZN12mutex_user_t10set_holderEP5tcb_tmb
_ZN12mutex_user_t17atomic_set_holderEP5tcb_tm
_ZN12mutex_user_t20atomic_set_contendedEP5tcb_t
_ZN12mutex_user_t8set_freeEP5tcb_t
_ZN12prio_queue_t17set_base_priorityEP5tcb_ti
_ZN12prio_queue_t22set_effective_priorityEP5tcb_ti
_ZN12prio_queue_t4initEv
_ZN12prio_queue_t7dequeueEP5tcb_t
_ZN12prio_queue_t7enqueueEP5tcb_t
_ZN13small_alloc_t10free_blockEP12kmem_group_tP19small_alloc_block_t
_ZN13small_alloc_t14allocate_blockEP12kmem_group_t
_ZN13small_alloc_t4freeEPv
_ZN13small_alloc_t4initEP12kmem_group_tmm
_ZN13small_alloc_t8allocateEv
_ZN14arm_l2_cache_t11cache_flushEv
_ZN14arm_l2_cache_t15cache_lockway_dEm
_ZN14arm_l2_cache_t15cache_lockway_iEm
_ZN14arm_l2_cache_t16cache_invalidateEv
_ZN14arm_l2_cache_t17cache_flush_by_paEPv
_ZN14arm_l2_cache_t18cache_flush_by_wayEm
_ZN14arm_l2_cache_t19debug_read_line_tagEmmPmS0_
_ZN14arm_l2_cache_t22cache_invalidate_by_paEPv
_ZN14arm_l2_cache_t23cache_flush_by_pa_rangeEPvm
_ZN14arm_l2_cache_t23cache_invalidate_by_wayEm
_ZN15PlatformSupport12enter_kdebugEPc
_ZN15PlatformSupport14deliver_notifyEPvmPFvvE
_ZN15PlatformSupport17lookup_tcb_lockedE10threadid_t
_ZN15PlatformSupport21add_mapping_to_kernelEPvS0_NS_8pgsize_eENS_5rwx_eEbNS_11memattrib_eE
_ZN15PlatformSupport32scheduler_handle_timer_interruptEbPFvvE
_ZN15PlatformSupport6printfEPKcz
_ZN15PlatformSupport8mem_freeEPvm
_ZN15PlatformSupport8scheduleEPFvvE
_ZN15PlatformSupport9mem_allocEmb
_ZN15cap_reference_t13add_referenceEP5cap_tS1_
_ZN15cap_reference_t13add_referenceEP5tcb_tP5cap_t
_ZN15cap_reference_t16remove_referenceEP5cap_tS1_
_ZN15cap_reference_t16remove_referenceEP5tcb_tP5cap_t
_ZN15cap_reference_t18cap_reference_lockE
_ZN15cap_reference_t20invalidate_referenceEP5cap_t
_ZN15cap_reference_t20invalidate_referenceEP5tcb_t
_ZN15generic_space_t10read_fpageE7fpage_tP11phys_desc_tP11perm_desc_t
_ZN15generic_space_t11unmap_fpageE7fpage_tb
_ZN15generic_space_t12readmem_physEPvS0_
_ZN15generic_space_t13allocate_utcbEP5tcb_t
_ZN15generic_space_t14free_utcb_pageEP7pgent_tNS0_8pgsize_eEPv
_ZN15generic_space_t14lookup_mappingEPvPP7pgent_tPNS1_8pgsize_eE
_ZN15generic_space_t16handle_pagefaultEPvS0_NS_8access_eEbPFvvE
_ZN15generic_space_t17sync_kernel_spaceEPv
_ZN15generic_space_t18flush_tlbent_localEP7space_tPvm
_ZN15generic_space_t19check_utcb_locationEm
_ZN15generic_space_t19free_page_directoryEv
_ZN15generic_space_t20init_kernel_mappingsEv
_ZN15generic_space_t21free_utcb_area_memoryEv
_ZN15generic_space_t23allocate_page_directoryEv
_ZN15generic_space_t4freeEv
_ZN15generic_space_t4initE7fpage_t
_ZN15generic_space_t7readmemEPvPm
_ZN15generic_space_t8activateEP5tcb_t
_ZN15generic_space_t9arch_freeEv
_ZN15generic_space_t9flush_tlbEP7space_t
_ZN15generic_space_t9free_utcbEP6utcb_t
_ZN15generic_space_t9map_fpageE11phys_desc_t7fpage_t
_ZN18thread_resources_t12arm_vfp_freeEP5tcb_t
_ZN18thread_resources_t12arm_vfp_loadEP5tcb_t
_ZN18thread_resources_t12arm_vfp_saveEP5tcb_t
_ZN18thread_resources_t15arm_vfp_controlEP5tcb_tb
_ZN18thread_resources_t17arm_vfp_exceptionEP5tcb_t
_ZN18thread_resources_t4freeEP5tcb_t
_ZN18thread_resources_t4initEP5tcb_t
_ZN18thread_resources_t5purgeEP5tcb_t
_ZN22arm_l2_event_monitor_t15clear_EMC_eventEm
_ZN22arm_l2_event_monitor_t20is_EMC_event_occuredEm
_ZN22arm_l2_event_monitor_t4initEv
_ZN22arm_l2_event_monitor_t6enableEv
_ZN22arm_l2_event_monitor_t7disableEv
_ZN22arm_l2_event_monitor_t8read_EMCEmPm
_ZN22arm_l2_event_monitor_t8set_EMCCEmmmm
_ZN22arm_l2_event_monitor_t9read_EMCCEm
_ZN5kdb_t10cmd__abortEP11cmd_group_t
_ZN5kdb_t10cmd__priorEP11cmd_group_t
_ZN5kdb_t10cmd_configEP11cmd_group_t
_ZN5kdb_t10cmd_rebootEP11cmd_group_t
_ZN5kdb_t11cmd_memdumpEP11cmd_group_t
_ZN5kdb_t11cmd_tb_dumpEP11cmd_group_t
_ZN5kdb_t11cmd_tb_infoEP11cmd_group_t
_ZN5kdb_t11cmd_tp_confEP11cmd_group_t
_ZN5kdb_t11cmd_tp_listEP11cmd_group_t
_ZN5kdb_t12cmd_dump_tlbEP11cmd_group_t
_ZN5kdb_t12cmd_show_tcbEP11cmd_group_t
_ZN5kdb_t12cmd_tb_resetEP11cmd_group_t
_ZN5kdb_t12cmd_tp_resetEP11cmd_group_t
_ZN5kdb_t12cmd_wordsizeEP11cmd_group_t
_ZN5kdb_t13cmd_dump_ptabEP11cmd_group_t
_ZN5kdb_t13cmd_tp_enableEP11cmd_group_t
_ZN5kdb_t14cmd_dump_frameEP11cmd_group_t
_ZN5kdb_t14cmd_kmem_statsEP11cmd_group_t
_ZN5kdb_t14cmd_show_clistEP11cmd_group_t
_ZN5kdb_t14cmd_show_readyEP11cmd_group_t
_ZN5kdb_t14cmd_show_spaceEP11cmd_group_t
_ZN5kdb_t14cmd_statisticsEP11cmd_group_t
_ZN5kdb_t14cmd_tb_logmaskEP11cmd_group_t
_ZN5kdb_t14cmd_tid_formatEP11cmd_group_t
_ZN5kdb_t14cmd_tp_disableEP11cmd_group_t
_ZN5kdb_t15cmd_list_clistsEP11cmd_group_t
_ZN5kdb_t15cmd_list_spacesEP11cmd_group_t
_ZN5kdb_t15cmd_mode_switchEP11cmd_group_t
_ZN5kdb_t15cmd_show_tcbextEP11cmd_group_t
_ZN5kdb_t15cmd_tp_conf_allEP11cmd_group_t
_ZN5kdb_t15cmd_tracebufferEP11cmd_group_t
_ZN5kdb_t15cmd_tracepointsEP11cmd_group_t
_ZN5kdb_t16cmd_dump_l2cacheEP11cmd_group_t
_ZN5kdb_t16cmd_memdump_physEP11cmd_group_t
_ZN5kdb_t16cmd_show_mutexesEP11cmd_group_t
_ZN5kdb_t17cmd_dump_cp15regsEP11cmd_group_t
_ZN5kdb_t18cmd_memdump_remoteEP11cmd_group_t
_ZN5kdb_t18cmd_show_dep_graphEP11cmd_group_t
_ZN5kdb_t21cmd_set_event_monitorEP11cmd_group_t
_ZN5kdb_t22cmd_dump_current_frameEP11cmd_group_t
_ZN5kdb_t22cmd_dump_whole_l2cacheEP11cmd_group_t
_ZN5kdb_t22cmd_read_event_monitorEP11cmd_group_t
_ZN5kdb_t3preEv
_ZN5kdb_t4initEv
_ZN5kdb_t4postEv
_ZN5kdb_t5entryEPv
_ZN5kdb_t6cmd_goEP11cmd_group_t
_ZN5kdb_t8cmd_archEP11cmd_group_t
_ZN5kdb_t9cmd__helpEP11cmd_group_t
_ZN5tcb_t10delete_tcbEv
_ZN5tcb_t10save_stateEm
_ZN5tcb_t11cancel_ipcsEv
_ZN5tcb_t13restore_stateEm
_ZN5tcb_t15release_mutexesEv
_ZN5tcb_t17remove_dependencyEv
_ZN5tcb_t18send_pagefault_ipcEPvS0_N15generic_space_t8access_eEPFvvE
_ZN5tcb_t20create_kernel_threadE10threadid_tP6utcb_t
_ZN5tcb_t20create_startup_stackEPFvvE
_ZN5tcb_t23calc_effective_priorityEv
_ZN5tcb_t4initE10threadid_t
_ZN5tcb_t6unwindEPS_
_ZN5tcb_t8activateEPFvvE
_ZN6kmem_t13alloc_alignedEmmm
_ZN6kmem_t4freeEPvm
_ZN6kmem_t4initEPvS0_
_ZN6kmem_t5allocEmb
_ZN7clist_t10lookup_capE10threadid_t
_ZN7clist_t11add_ipc_capE10threadid_tP5tcb_t
_ZN7clist_t14add_thread_capE10threadid_tP5tcb_t
_ZN7clist_t14remove_ipc_capE10threadid_t
_ZN7clist_t17remove_thread_capE10threadid_t
_ZN7clist_t21lookup_ipc_cap_lockedE10threadid_t
_ZN7clist_t24lookup_thread_cap_lockedE10threadid_tb
_ZN7clist_t26lookup_thread_cap_unlockedE10threadid_t
_ZN7clist_t8is_emptyEv
_ZN7mutex_t10set_holderEP5tcb_t
_ZN7mutex_t11hybrid_lockEP5tcb_t12mutex_user_tPFvvE
_ZN7mutex_t12dequeue_heldEP5tcb_t
_ZN7mutex_t12enqueue_heldEP5tcb_t
_ZN7mutex_t13hybrid_unlockEP5tcb_t12mutex_user_tPFvvE
_ZN7mutex_t15dequeue_presentEv
_ZN7mutex_t15enqueue_presentEv
_ZN7mutex_t4initE9mutexid_t
_ZN7mutex_t7acquireEP5tcb_t
_ZN7mutex_t7destroyEv
_ZN7mutex_t7releaseEv
_ZN7space_t11add_mappingEPvS0_N7pgent_t8pgsize_eENS_5rwx_eEb11memattrib_e
_ZN8Platform10imx31_avicE
_ZN8Platform10irq_ownersE
_ZN8Platform11disable_fiqEv
_ZN8Platform11init_clocksEv
_ZN8Platform11irq_mappingE
_ZN8Platform11irq_pendingE
_ZN8Platform11serial_getcEb
_ZN8Platform11serial_initEv
_ZN8Platform11serial_putcEc
_ZN8Platform12imx31_do_irqEmPFvvE
_ZN8Platform14imx31_mask_irqEm
_ZN8Platform14ticks_disabledE
_ZN8Platform16config_interruptEPNS_10irq_desc_tEPv13irq_control_tS2_
_ZN8Platform16imx31_unmask_irqEm
_ZN8Platform17dcache_attributesEPmS0_S0_S0_
_ZN8Platform17icache_attributesEPmS0_S0_S0_
_ZN8Platform18disable_timer_tickEv
_ZN8Platform19do_platform_controlEPv14plat_control_tmmmPFvvE
_ZN8Platform21imx31_init_interruptsEv
_ZN8Platform22handle_timer_interruptEbPFvvE
_ZN8Platform22imx31_set_priority_irqEmm
_ZN8Platform26security_control_interruptEPNS_10irq_desc_tEPvm
_ZN8Platform4initEii
_ZN8Platform6rebootEv
_ZN9arm_cache22cache_flush_range_attrEP15generic_space_tPvmm
_ZZ12sys_scheduleE19__PRETTY_FUNCTION__
_ZZ12to_memattrib10l4attrib_eE19__PRETTY_FUNCTION__
_ZZ16arm_memory_abortE19__PRETTY_FUNCTION__
_ZZ16handle_interruptE12__FUNCTION__
_ZZ16handle_interruptE19__PRETTY_FUNCTION__
_ZZ17init_root_serversvE19__PRETTY_FUNCTION__
_ZZ18create_root_server10threadid_t7fpage_tmE19__PRETTY_FUNCTION__
_ZZ18sys_thread_controlE12__FUNCTION__
_ZZ19finish_sys_schedulevE12__FUNCTION__
_ZZ20finish_exception_ipcvE12__FUNCTION__
_ZZ22setup_initial_mappingsP7space_tE19__PRETTY_FUNCTION__
_ZZ29finish_send_vfp_exception_ipcvE12__FUNCTION__
_ZZ7sys_ipcE19__PRETTY_FUNCTION__
_ZZN12asid_cache_t8allocateEP7space_tP6asid_tE4next
_ZZN15generic_space_t16handle_pagefaultEPvS0_NS_8access_eEbPFvvEE12__FUNCTION__
_ZZN15generic_space_t16handle_pagefaultEPvS0_NS_8access_eEbPFvvEE19__PRETTY_FUNCTION__
_ZZN18tcb_syscall_data_t12get_ipc_valsEvE12__FUNCTION__
_ZZN18tcb_syscall_data_t12get_ipc_valsEvE12__FUNCTION__
_ZZN18tcb_syscall_data_t12get_ipc_valsEvE12__FUNCTION__
_ZZN18tcb_syscall_data_t12get_ipc_valsEvE12__FUNCTION__
_ZZN18tcb_syscall_data_t12get_ipc_valsEvE12__FUNCTION__
_ZZN18tcb_syscall_data_t12get_ipc_valsEvE12__FUNCTION__
_ZZN18thread_resources_t5purgeEP5tcb_tE19__PRETTY_FUNCTION__
_ZZN5kdb_t13cmd_dump_ptabEP11cmd_group_tE6spaces
_ZZN5kdb_t5entryEPvE8kdb_lock
_ZZN5tcb_t6unwindEPS_E19__PRETTY_FUNCTION__
_ashldi3
_clz_tab
_div0
__idle_tcb
__idle_utcb
__kdb_arch_cmd__abort
__kdb_arch_cmd__help
__kdb_arch_cmd__prior
__kdb_arch_cmd_dump_cp15regs
__kdb_arch_cmd_dump_l2cache
__kdb_arch_cmd_dump_tlb
__kdb_arch_cmd_dump_whole_l2cache
__kdb_arch_cmd_read_event_monitor
__kdb_arch_cmd_set_event_monitor
__kdb_config_cmd__abort
__kdb_config_cmd__help
__kdb_config_cmd__prior
__kdb_config_cmd_mode_switch
__kdb_config_cmd_tid_format
__kdb_config_cmd_wordsize
__kdb_group_arch
__kdb_group_config
__kdb_group_root
__kdb_group_statistics
__kdb_group_tracebuf
__kdb_group_tracepoints
__kdb_root_cmd__abort
__kdb_root_cmd__help
__kdb_root_cmd__prior
__kdb_root_cmd_arch
__kdb_root_cmd_config
__kdb_root_cmd_dump_current_frame
__kdb_root_cmd_dump_frame
__kdb_root_cmd_dump_ptab
__kdb_root_cmd_go
__kdb_root_cmd_list_clists
__kdb_root_cmd_list_spaces
__kdb_root_cmd_memdump
__kdb_root_cmd_memdump_phys
__kdb_root_cmd_memdump_remote
__kdb_root_cmd_reboot
__kdb_root_cmd_show_clist
__kdb_root_cmd_show_dep_graph
__kdb_root_cmd_show_mutexes
__kdb_root_cmd_show_ready
__kdb_root_cmd_show_space
__kdb_root_cmd_show_tcb
__kdb_root_cmd_show_tcbext
__kdb_root_cmd_statistics
__kdb_root_cmd_tracebuffer
__kdb_root_cmd_tracepoints
__kdb_statistics_cmd__abort
__kdb_statistics_cmd__help
__kdb_statistics_cmd__prior
__kdb_statistics_cmd_kmem_stats
__kdb_tracebuf_cmd__abort
__kdb_tracebuf_cmd__help
__kdb_tracebuf_cmd__prior
__kdb_tracebuf_cmd_tb_dump
__kdb_tracebuf_cmd_tb_info
__kdb_tracebuf_cmd_tb_logmask
__kdb_tracebuf_cmd_tb_reset
__kdb_tracepoints_cmd__abort
__kdb_tracepoints_cmd__help
__kdb_tracepoints_cmd__prior
__kdb_tracepoints_cmd_tp_conf
__kdb_tracepoints_cmd_tp_conf_all
__kdb_tracepoints_cmd_tp_disable
__kdb_tracepoints_cmd_tp_enable
__kdb_tracepoints_cmd_tp_list
__kdb_tracepoints_cmd_tp_reset
__kernel_space_object
__kmem_group_kmem_clist
__kmem_group_kmem_clistids
__kmem_group_kmem_ll
__kmem_group_kmem_misc
__kmem_group_kmem_mutex
__kmem_group_kmem_mutexids
__kmem_group_kmem_pgtab
__kmem_group_kmem_root_clist
__kmem_group_kmem_space
__kmem_group_kmem_spaceids
__kmem_group_kmem_stack
__kmem_group_kmem_tcb
__kmem_group_kmem_trace
__kmem_group_kmem_utcb
__kmem_group_kmem_vfp
__kmem_groups
__macro_set___kdb_group_arch_array
__macro_set___kdb_group_arch_count
__macro_set___kdb_group_config_array
__macro_set___kdb_group_config_count
__macro_set___kdb_group_root_array
__macro_set___kdb_group_root_count
__macro_set___kdb_group_statistics_array
__macro_set___kdb_group_statistics_count
__macro_set___kdb_group_tracebuf_array
__macro_set___kdb_group_tracebuf_count
__macro_set___kdb_group_tracepoints_array
__macro_set___kdb_group_tracepoints_count
__macro_set___kmem_groups_array
__macro_set___kmem_groups_count
__macro_set_kdb_initfuncs_array
__macro_set_kdb_initfuncs_count
__macro_set_tracepoint_set_array
__macro_set_tracepoint_set_count
__phys_addr_ram
__phys_addr_rom
__scheduler
__setentry___kdb_group_arch___kdb_arch_cmd__abort
__setentry___kdb_group_arch___kdb_arch_cmd__help
__setentry___kdb_group_arch___kdb_arch_cmd__prior
__setentry___kdb_group_arch___kdb_arch_cmd_dump_cp15regs
__setentry___kdb_group_arch___kdb_arch_cmd_dump_l2cache
__setentry___kdb_group_arch___kdb_arch_cmd_dump_tlb
__setentry___kdb_group_arch___kdb_arch_cmd_dump_whole_l2cache
__setentry___kdb_group_arch___kdb_arch_cmd_read_event_monitor
__setentry___kdb_group_arch___kdb_arch_cmd_set_event_monitor
__setentry___kdb_group_config___kdb_config_cmd__abort
__setentry___kdb_group_config___kdb_config_cmd__help
__setentry___kdb_group_config___kdb_config_cmd__prior
__setentry___kdb_group_config___kdb_config_cmd_mode_switch
__setentry___kdb_group_config___kdb_config_cmd_tid_format
__setentry___kdb_group_config___kdb_config_cmd_wordsize
__setentry___kdb_group_root___kdb_root_cmd__abort
__setentry___kdb_group_root___kdb_root_cmd__help
__setentry___kdb_group_root___kdb_root_cmd__prior
__setentry___kdb_group_root___kdb_root_cmd_arch
__setentry___kdb_group_root___kdb_root_cmd_config
__setentry___kdb_group_root___kdb_root_cmd_dump_current_frame
__setentry___kdb_group_root___kdb_root_cmd_dump_frame
__setentry___kdb_group_root___kdb_root_cmd_dump_ptab
__setentry___kdb_group_root___kdb_root_cmd_go
__setentry___kdb_group_root___kdb_root_cmd_list_clists
__setentry___kdb_group_root___kdb_root_cmd_list_spaces
__setentry___kdb_group_root___kdb_root_cmd_memdump
__setentry___kdb_group_root___kdb_root_cmd_memdump_phys
__setentry___kdb_group_root___kdb_root_cmd_memdump_remote
__setentry___kdb_group_root___kdb_root_cmd_reboot
__setentry___kdb_group_root___kdb_root_cmd_show_clist
__setentry___kdb_group_root___kdb_root_cmd_show_dep_graph
__setentry___kdb_group_root___kdb_root_cmd_show_mutexes
__setentry___kdb_group_root___kdb_root_cmd_show_ready
__setentry___kdb_group_root___kdb_root_cmd_show_space
__setentry___kdb_group_root___kdb_root_cmd_show_tcb
__setentry___kdb_group_root___kdb_root_cmd_show_tcbext
__setentry___kdb_group_root___kdb_root_cmd_statistics
__setentry___kdb_group_root___kdb_root_cmd_tracebuffer
__setentry___kdb_group_root___kdb_root_cmd_tracepoints
__setentry___kdb_group_statistics___kdb_statistics_cmd__abort
__setentry___kdb_group_statistics___kdb_statistics_cmd__help
__setentry___kdb_group_statistics___kdb_statistics_cmd__prior
__setentry___kdb_group_statistics___kdb_statistics_cmd_kmem_stats
__setentry___kdb_group_tracebuf___kdb_tracebuf_cmd__abort
__setentry___kdb_group_tracebuf___kdb_tracebuf_cmd__help
__setentry___kdb_group_tracebuf___kdb_tracebuf_cmd__prior
__setentry___kdb_group_tracebuf___kdb_tracebuf_cmd_tb_dump
__setentry___kdb_group_tracebuf___kdb_tracebuf_cmd_tb_info
__setentry___kdb_group_tracebuf___kdb_tracebuf_cmd_tb_logmask
__setentry___kdb_group_tracebuf___kdb_tracebuf_cmd_tb_reset
__setentry___kdb_group_tracepoints___kdb_tracepoints_cmd__abort
__setentry___kdb_group_tracepoints___kdb_tracepoints_cmd__help
__setentry___kdb_group_tracepoints___kdb_tracepoints_cmd__prior
__setentry___kdb_group_tracepoints___kdb_tracepoints_cmd_tp_conf
__setentry___kdb_group_tracepoints___kdb_tracepoints_cmd_tp_conf_all
__setentry___kdb_group_tracepoints___kdb_tracepoints_cmd_tp_disable
__setentry___kdb_group_tracepoints___kdb_tracepoints_cmd_tp_enable
__setentry___kdb_group_tracepoints___kdb_tracepoints_cmd_tp_list
__setentry___kdb_group_tracepoints___kdb_tracepoints_cmd_tp_reset
__setentry___kmem_groups___kmem_group_kmem_clist
__setentry___kmem_groups___kmem_group_kmem_clistids
__setentry___kmem_groups___kmem_group_kmem_ll
__setentry___kmem_groups___kmem_group_kmem_misc
__setentry___kmem_groups___kmem_group_kmem_mutex
__setentry___kmem_groups___kmem_group_kmem_mutexids
__setentry___kmem_groups___kmem_group_kmem_pgtab
__setentry___kmem_groups___kmem_group_kmem_root_clist
__setentry___kmem_groups___kmem_group_kmem_space
__setentry___kmem_groups___kmem_group_kmem_spaceids
__setentry___kmem_groups___kmem_group_kmem_stack
__setentry___kmem_groups___kmem_group_kmem_tcb
__setentry___kmem_groups___kmem_group_kmem_trace
__setentry___kmem_groups___kmem_group_kmem_utcb
__setentry___kmem_groups___kmem_group_kmem_vfp
__setentry_tracepoint_set___tracepoint_ARM_PAGE_FAULT
__setentry_tracepoint_set___tracepoint_DEADLOCK_DETECTED
__setentry_tracepoint_set___tracepoint_EXCEPTION_IPC_GENERAL
__setentry_tracepoint_set___tracepoint_EXCEPTION_IPC_SYSCALL
__setentry_tracepoint_set___tracepoint_EXCEPTION_IPC_VFP
__setentry_tracepoint_set___tracepoint_FASTPATH_ASYNC_IPC
__setentry_tracepoint_set___tracepoint_FPAGE_MAP
__setentry_tracepoint_set___tracepoint_FPAGE_OVERMAP
__setentry_tracepoint_set___tracepoint_FPAGE_READ
__setentry_tracepoint_set___tracepoint_FPAGE_UNMAP
__setentry_tracepoint_set___tracepoint_INTERRUPT
__setentry_tracepoint_set___tracepoint_IPC_TRANSFER
__setentry_tracepoint_set___tracepoint_KMEM_ALLOC
__setentry_tracepoint_set___tracepoint_KMEM_FREE
__setentry_tracepoint_set___tracepoint_PAGEFAULT_KERNEL
__setentry_tracepoint_set___tracepoint_PAGEFAULT_USER
__setentry_tracepoint_set___tracepoint_PREEMPTION_FAULT
__setentry_tracepoint_set___tracepoint_PREEMPTION_SIGNALED
__setentry_tracepoint_set___tracepoint_SYSCALL_CACHE_CONTROL
__setentry_tracepoint_set___tracepoint_SYSCALL_CAP_CONTROL
__setentry_tracepoint_set___tracepoint_SYSCALL_EXCHANGE_REGISTERS
__setentry_tracepoint_set___tracepoint_SYSCALL_INTERRUPT_CONTROL
__setentry_tracepoint_set___tracepoint_SYSCALL_IPC
__setentry_tracepoint_set___tracepoint_SYSCALL_MAP_CONTROL
__setentry_tracepoint_set___tracepoint_SYSCALL_MEMORY_COPY
__setentry_tracepoint_set___tracepoint_SYSCALL_MUTEX
__setentry_tracepoint_set___tracepoint_SYSCALL_MUTEX_CONTROL
__setentry_tracepoint_set___tracepoint_SYSCALL_PLATFORM_CONTROL
__setentry_tracepoint_set___tracepoint_SYSCALL_SCHEDULE
__setentry_tracepoint_set___tracepoint_SYSCALL_SECURITY_CONTROL
__setentry_tracepoint_set___tracepoint_SYSCALL_SPACE_CONTROL
__setentry_tracepoint_set___tracepoint_SYSCALL_SPACE_SWITCH
__setentry_tracepoint_set___tracepoint_SYSCALL_THREAD_CONTROL
__setentry_tracepoint_set___tracepoint_SYSCALL_THREAD_SWITCH
__setentry_tracepoint_set___tracepoint_TIMESLICE_EXPIRED
__setentry_tracepoint_set___tracepoint_UNWIND
__stack
__tracepoint_ARM_PAGE_FAULT
__tracepoint_DEADLOCK_DETECTED
__tracepoint_EXCEPTION_IPC_GENERAL
__tracepoint_EXCEPTION_IPC_SYSCALL
__tracepoint_EXCEPTION_IPC_VFP
__tracepoint_FASTPATH_ASYNC_IPC
__tracepoint_FPAGE_MAP
__tracepoint_FPAGE_OVERMAP
__tracepoint_FPAGE_READ
__tracepoint_FPAGE_UNMAP
__tracepoint_INTERRUPT
__tracepoint_IPC_TRANSFER
__tracepoint_KMEM_ALLOC
__tracepoint_KMEM_FREE
__tracepoint_PAGEFAULT_KERNEL
__tracepoint_PAGEFAULT_USER
__tracepoint_PREEMPTION_FAULT
__tracepoint_PREEMPTION_SIGNALED
__tracepoint_SYSCALL_CACHE_CONTROL
__tracepoint_SYSCALL_CAP_CONTROL
__tracepoint_SYSCALL_EXCHANGE_REGISTERS
__tracepoint_SYSCALL_INTERRUPT_CONTROL
__tracepoint_SYSCALL_IPC
__tracepoint_SYSCALL_MAP_CONTROL
__tracepoint_SYSCALL_MEMORY_COPY
__tracepoint_SYSCALL_MUTEX
__tracepoint_SYSCALL_MUTEX_CONTROL
__tracepoint_SYSCALL_PLATFORM_CONTROL
__tracepoint_SYSCALL_SCHEDULE
__tracepoint_SYSCALL_SECURITY_CONTROL
__tracepoint_SYSCALL_SPACE_CONTROL
__tracepoint_SYSCALL_SPACE_SWITCH
__tracepoint_SYSCALL_THREAD_CONTROL
__tracepoint_SYSCALL_THREAD_SWITCH
__tracepoint_TIMESLICE_EXPIRED
__tracepoint_UNWIND
_udivdi3
_udivsi3
_umoddi3
_umodsi3
__vector_vaddr
_end
_end_init
_end_ram
_end_rom
_end_setlist
_end_sets
_kernel_init_stack
_kernel_space_pagetable
_start
_start_data
_start_init
_start_ram
_start_rom
_start_setlist
_start_sets
add_mapping_init
add_rom_mapping_init
arch
arch/arm/pistachio/src/notify.spp
arch/arm/pistachio/src/notify.spp
arch/arm/pistachio/src/notify.spp
arch/arm/pistachio/src/notify.spp
arch/arm/pistachio/src/notify.spp
arch/arm/pistachio/src/notify.spp
arch/arm/pistachio/src/notify.spp
arch/arm/pistachio/src/notify.spp
arch/arm/pistachio/src/notify.spp
arch/arm/pistachio/v6/src/thread_start.spp
arch/arm/pistachio/v6/src/thread_start.spp
arch/arm/pistachio/v6/src/thread_start.spp
arch/arm/pistachio/v6/src/thread_start.spp
arch/arm/pistachio/v6/src/thread_start.spp
arch/arm/pistachio/v6/src/thread_start.spp
arch/arm/pistachio/v6/src/thread_start.spp
arch/arm/pistachio/v6/src/thread_start.spp
arch/arm/pistachio/v6/src/thread_start.spp
arch/arm/pistachio/v6/src/traps.spp
arch/arm/pistachio/v6/src/traps.spp
arch/arm/pistachio/v6/src/traps.spp
arch/arm/pistachio/v6/src/traps.spp
arch/arm/pistachio/v6/src/traps.spp
arch/arm/pistachio/v6/src/traps.spp
arch/arm/pistachio/v6/src/traps.spp
arch/arm/pistachio/v6/src/traps.spp
arch/arm/pistachio/v6/src/traps.spp
arch/arm/pistachio/v6/src/traps.spp
arch/arm/pistachio/v6/src/traps.spp
arch/arm/pistachio/v6/src/traps.spp
arch/arm/pistachio/v6/src/traps.spp
arch/arm/pistachio/v6/src/traps.spp
arch_init
arm_abort_return
arm_common_return
arm_data_abort_exception
arm_finish_callback_from_interrupt
arm_finish_callback_restoreregs
arm_fiq_exception
arm_high_vector
arm_irq_exception
arm_memory_abort
arm_memory_abort_return
arm_misc_syscall
arm_perform_callback_from_interrupt
arm_perform_callback_saveregs_full
arm_perform_callback_saveregs_partial
arm_prefetch_abort_exception
arm_reset_exception
arm_return_from_notify0
arm_return_from_notify1
arm_std_syscall
arm_swi_exception
arm_swi_syscall
arm_syscall_vectors
arm_undefined_inst_exception
arm_utcb_page
asid.cc
asid_cache
assert.cc
async_fp_helper
async_fp_helper_asm
async_no_acceptor
async_no_trigger
breakin_disabled
build/pistachio/include/compat/c.h
build/pistachio/include/compat/c.h
build/pistachio/include/compat/c.h
build/pistachio/include/compat/c.h
build/pistachio/include/compat/c.h
build/pistachio/include/compat/c.h
build/pistachio/include/compat/c.h
build/pistachio/include/compat/c.h
build/pistachio/include/compat/toolchain/gnu/c.h
build/pistachio/include/compat/toolchain/gnu/c.h
build/pistachio/include/compat/toolchain/gnu/c.h
build/pistachio/include/compat/toolchain/gnu/c.h
build/pistachio/include/kernel/arch/asm.h
build/pistachio/include/kernel/arch/asm.h
build/pistachio/include/kernel/arch/asm.h
build/pistachio/include/kernel/arch/asm.h
build/pistachio/include/kernel/arch/asm.h
build/pistachio/include/kernel/arch/asm.h
build/pistachio/include/kernel/arch/asm_gnu.h
build/pistachio/include/kernel/arch/asm_gnu.h
build/pistachio/include/kernel/arch/asm_gnu.h
build/pistachio/include/kernel/arch/asm_gnu.h
build/pistachio/include/kernel/arch/config.h
build/pistachio/include/kernel/arch/config.h
build/pistachio/include/kernel/arch/config.h
build/pistachio/include/kernel/arch/config.h
build/pistachio/include/kernel/arch/config.h
build/pistachio/include/kernel/arch/config.h
build/pistachio/include/kernel/arch/config.h
build/pistachio/include/kernel/arch/config.h
build/pistachio/include/kernel/arch/config.h
build/pistachio/include/kernel/arch/config.h
build/pistachio/include/kernel/arch/config.h
build/pistachio/include/kernel/arch/config.h
build/pistachio/include/kernel/arch/config.h
build/pistachio/include/kernel/arch/config.h
build/pistachio/include/kernel/arch/config.h
build/pistachio/include/kernel/arch/config.h
build/pistachio/include/kernel/arch/config.h
build/pistachio/include/kernel/arch/config.h
build/pistachio/include/kernel/arch/config.h
build/pistachio/include/kernel/arch/config.h
build/pistachio/include/kernel/arch/config.h
build/pistachio/include/kernel/arch/config.h
build/pistachio/include/kernel/arch/config.h
build/pistachio/include/kernel/arch/config.h
build/pistachio/include/kernel/arch/page.h
build/pistachio/include/kernel/arch/page.h
build/pistachio/include/kernel/arch/page.h
build/pistachio/include/kernel/arch/page.h
build/pistachio/include/kernel/arch/ver/config.h
build/pistachio/include/kernel/arch/ver/config.h
build/pistachio/include/kernel/arch/ver/config.h
build/pistachio/include/kernel/arch/ver/config.h
build/pistachio/include/kernel/arch/ver/utcb.h
build/pistachio/include/kernel/arch/ver/utcb.h
build/pistachio/include/kernel/config.h
build/pistachio/include/kernel/config.h
build/pistachio/include/kernel/config.h
build/pistachio/include/kernel/config.h
build/pistachio/include/kernel/config.h
build/pistachio/include/kernel/config.h
build/pistachio/include/kernel/config.h
build/pistachio/include/kernel/config.h
build/pistachio/include/kernel/cpu/syscon.h
build/pistachio/include/kernel/cpu/syscon.h
build/pistachio/include/kernel/cpu/syscon.h
build/pistachio/include/kernel/cpu/syscon.h
build/pistachio/include/kernel/l4.h
build/pistachio/include/kernel/l4.h
build/pistachio/include/kernel/l4.h
build/pistachio/include/kernel/l4.h
build/pistachio/include/kernel/l4.h
build/pistachio/include/kernel/l4.h
build/pistachio/include/kernel/l4.h
build/pistachio/include/kernel/l4.h
build/pistachio/include/kernel/macros.h
build/pistachio/include/kernel/macros.h
build/pistachio/include/kernel/macros.h
build/pistachio/include/kernel/macros.h
build/pistachio/include/kernel/macros.h
build/pistachio/include/kernel/macros.h
build/pistachio/include/kernel/macros.h
build/pistachio/include/kernel/macros.h
build/pistachio/include/kernel/macros.h
build/pistachio/include/kernel/macros.h
build/pistachio/include/kernel/macros.h
build/pistachio/include/kernel/macros.h
build/pistachio/include/kernel/types.h
build/pistachio/include/kernel/types.h
build/pistachio/include/kernel/types.h
build/pistachio/include/kernel/types.h
build/pistachio/include/l4/arch/config.h
build/pistachio/include/l4/arch/config.h
build/pistachio/include/l4/arch/config.h
build/pistachio/include/l4/arch/config.h
build/pistachio/include/l4/arch/syscalls_asm.h
build/pistachio/include/l4/arch/syscalls_asm.h
build/pistachio/include/l4/arch/vregs.h
build/pistachio/include/l4/arch/vregs.h
build/pistachio/include/l4/arch/vregs.h
build/pistachio/include/l4/cust/utcb.h
build/pistachio/include/l4/cust/vregs.h
build/pistachio/include/l4/macros.h
build/pistachio/include/l4/macros.h
build/pistachio/include/l4/macros.h
build/pistachio/include/l4/macros.h
build/pistachio/object/pistachio/include/arch/asm.h
build/pistachio/object/pistachio/include/arch/asm.h
build/pistachio/object/pistachio/include/arch/asm.h
build/pistachio/object/pistachio/include/arch/asm.h
build/pistachio/object/pistachio/include/arch/exception.h
build/pistachio/object/pistachio/include/arch/globals.h
build/pistachio/object/pistachio/include/arch/globals.h
build/pistachio/object/pistachio/include/arch/globals.h
build/pistachio/object/pistachio/include/arch/syscalls.h
build/pistachio/object/pistachio/include/arch/syscalls.h
build/pistachio/object/pistachio/include/arch/syscalls.h
build/pistachio/object/pistachio/include/arch/syscalls.h
build/pistachio/object/pistachio/include/arch/syscalls.h
build/pistachio/object/pistachio/include/arch/syscalls.h
build/pistachio/object/pistachio/include/arch/syscalls.h
build/pistachio/object/pistachio/include/arch/syscalls.h
build/pistachio/object/pistachio/include/arch/thread.h
build/pistachio/object/pistachio/include/arch/thread.h
build/pistachio/object/pistachio/include/arch/thread.h
build/pistachio/object/pistachio/include/arch/types.h
build/pistachio/object/pistachio/include/asmsyms.h
build/pistachio/object/pistachio/include/asmsyms.h
build/pistachio/object/pistachio/include/asmsyms.h
build/pistachio/object/pistachio/include/context_layout.h
build/pistachio/object/pistachio/include/context_layout.h
build/pistachio/object/pistachio/include/ktcb_layout.h
build/pistachio/object/pistachio/include/tcb_layout.h
build/pistachio/object/pistachio/include/tcb_layout.h
build/pistachio/object/pistachio/include/tcb_layout.h
c_schedule
cache.cc
cache.cc
caps.cc
check_async_ipc
check_async_ipc
check_async_irq
check_breakin.cc
check_coproc_fault
check_other_syscalls
clist.cc
clist.cc
clist_lookup
cmd.cc
config
console.cc
console.cc
copy_loop
data.cc
debug.cc
debug.cc
decode_reply_cap
do_excep_trace
do_ipc_copy
do_ipc_trace
done_mutex_loop
end_excep_trace
end_ipc_trace
endpoint.cc
enter_kdebug
enter_kdebug_c
entry.cc
epit_timer
events
exception.cc
exception.cc
exception_do_ipc
exception_fastpath_recover
exception_slowpath
exception_switch_to
exregs.cc
fast_path_recover
fast_path_switch_to
fast_reply_exception
fastpath.cc
fiq_vec
frame.cc
free_tcb_idx
generic_execution_units
generic_irq
global_mutexes_list
global_present_list
global_spaces_list
handle_interrupt
hw_pgshifts
init.cc
init.cc
init.cc
init_arm_globals
init_memory
init_struct
initial_to_user
input.cc
input_api.cc
intctrl.cc
interrupt.cc
interrupt.cc
ipc.cc
ipc_complete_switch_to
ipc_complete_switch_to_noex
ipc_fastpath_check_inheritance_call
ipc_fastpath_create_dependency
ipc_fastpath_drop_dependency
ipc_fastpath_drop_dependency_after_dequeue
ipc_fastpath_long_dequeue_queue_item
ipc_fastpath_post_create_dependency
ipc_fastpath_post_drop_dependency
ipc_return_user
ipc_slowpath
ipc_syscall_return
kdb
kdb_initfuncs
kdb_last_dump
kdb_tid_format
kdebug_entries
kernel_interrupt
kernel_version_string
kmem
kmem_clist
kmem_clistids
kmem_ll
kmem_misc
kmem_mutex
kmem_mutexids
kmem_pgtab
kmem_root_clist
kmem_space
kmem_spaceids
kmem_stack
kmem_tcb
kmem_trace
kmem_utcb
kmem_vfp
kmemory.cc
kmemory.cc
l2cache.cc
l2cc
l2cc.cc
l2evtmon
lib.cc
libgcc2.c
libgcc2.c
libgcc2.c
libgcc2.c
linear_ptab_dump.cc
linear_ptab_walker.cc
macro_set.cc
macro_sets.cc
map.cc
memcpy
memcpy_buf
memdump.cc
memdump_wordsize
memset
mp
mutex.cc
mutex.cc
mutex_list_lock
mutex_loop_start
mutex_pool
mutexid_table
names.cc
no_syscall_except_ipc_copy
normal_ipc_copy_mrs
num_chunks
num_tcbs
panic.cc
pistachio/include/l4.h
pistachio/include/l4.h
pistachio/include/l4.h
pistachio/include/l4.h
pistachio/include/l4.h
pistachio/include/l4.h
pistachio/include/l4.h
pistachio/include/l4.h
pistachio/include/l4.h
pistachio/include/l4.h
pistachio/include/l4.h
pistachio/include/l4.h
plat.cc
platform.cc
platform/imx31/pistachio/src/head.spp
platform/imx31/pistachio/src/head.spp
platform/imx31/pistachio/src/head.spp
platform/imx31/pistachio/src/head.spp
platform_impl.cc
platform_support.cc
platsupport.cc
prepost.cc
present_list_lock
print.cc
printf
prioqueue.cc
profile.cc
profiling.cc
reboot.cc
reboot.cc
reg.cc
remote_memcpy.cc
reset_exception
resources.cc
resources.cc
roinit.cc
root
root_clist
roottask_space
schedule.cc
schedule.cc
scheduler_ptr
security.cc
send_exception_ipc
serial_regs
show_processor_info
slow_excep_trace
slow_ipc_trace
smallalloc.cc
smp.cc
space.cc
space.cc
space.cc
space.cc
space_lookup
space_pool
space_switch.cc
spaces_list_lock
stack_top
start_post_syscall_callback
startup_system_mmu
statistics
strcpy
string.cc
syncpoint.cc
sys_arm_misc
sys_cache_control
sys_cap_control
sys_exchange_registers
sys_exchange_registers_exargs
sys_interrupt_control
sys_ipc
sys_map_control
sys_memory_copy
sys_mutex
sys_mutex_control
sys_platform_control
sys_schedule
sys_schedule_exargs
sys_security_control
sys_space_control
sys_space_control_exargs
sys_space_switch
sys_thread_control
sys_thread_control_exargs
sys_thread_switch
syscall_return
tb_irq
tb_irq_masked
tb_irq_pending
tcb.cc
tcb_array
tcb_size
thread.cc
thread.cc
thread.cc
thread.cc
tid_format.cc
time_ptr
timer.cc
timer_tick_length
tlb.cc
to_tcb_decoded
tp_list
trace_buffer
trace_lock
trace_names
tracebuf
tracebuffer.cc
tracebuffer.cc
traceids.cc
tracepoint_set
tracepoints
tracepoints.cc
undefined_exception
vector_arm_abort_return
vector_arm_common_return
vector_arm_data_abort_exception
vector_arm_finish_callback_from_interrupt
vector_arm_finish_callback_restoreregs
vector_arm_fiq_exception
vector_arm_high_vector
vector_arm_irq_exception
vector_arm_memory_abort_return
vector_arm_misc_syscall
vector_arm_perform_callback_from_interrupt
vector_arm_perform_callback_saveregs_full
vector_arm_perform_callback_saveregs_partial
vector_arm_prefetch_abort_exception
vector_arm_reset_exception
vector_arm_swi_exception
vector_arm_swi_syscall
vector_arm_undefined_inst_exception
vector_ipc_syscall_return
vector_scheduler_ptr
vector_stack_top
vector_sys_exchange_registers_exargs
vector_sys_schedule_exargs
vector_sys_space_control_exargs
vector_sys_thread_control_exargs
vector_syscall_return
vector_time_ptr
vfp.cc
vfp_owner
wdog_regs


Name
























$a
$a
$a
$a
$a
$a
$a
$a
$a
$a
$a
$a
$a
$a
$a
$a
$a
$a
$a
$a
$a
$a
$a
$a
$a
$a
$a
$a
$a
$a
$a
$a
$a
$a
$a
$a
$a
$a
$a
$a
$a
$a
$a
$a
$a
$a
$a
$a
$a
$a
$a
$a
$a
$a
$a
$a
$a
$a
$a
$a
$a
$a
$a
$a
$a
$a
$a
$a
$a
$a
$a
$a
$a
$a
$a
$a
$a
$a
$a
$a
$a
$a
$a
$a
$a
$a
$a
$a
$a
$a
$a
$a
$a
$a
$a
$a
$a
$a
$a
$a
$a
$a
$a
$a
$a
$a
$a
$a
$a
$a
$a
$a
$a
$a
$a
$a
$a
$a
$a
$a
$a
$a
$a
$a
$a
$a
$a
$a
$a
$a
$a
$a
$a
$a
$a
$a
$a
$a
$a
$a
$a
$a
$a
$a
$a
$a
$a
$a
$a
$a
$a
$a
$a
$a
$a
$a
$a
$a
$a
$a
$a
$a
$a
$a
$a
$a
$a
$a
$a
$a
$a
$a
$a
$a
$a
$a
$a
$a
$a
$a
$a
$a
$a
$a
$a
$a
$a
$a
$a
$a
$a
$a
$a
$a
$a
$a
$a
$a
$a
$a
$a
$a
$a
$a
$a
$a
$a
$a
$a
$a
$a
$a
$a
$a
$a
$a
$a
$a
$a
$a
$a
$a
$a
$a
$a
$a
$a
$a
$a
$a
$a
$a
$a
$a
$a
$a
$a
$a
$a
$a
$a
$a
$a
$a
$a
$a
$a
$a
$a
$a
$a
$a
$a
$a
$a
$a
$a
$a
$a
$a
$a
$a
$a
$a
$a
$a
$a
$a
$a
$a
$a
$a
$a
$a
$a
$a
$a
$a
$a
$a
$a
$a
$a
$a
$a
$a
$a
$a
$a
$a
$a
$a
$a
$a
$a
$a
$a
$a
$a
$a
$a
$a
$a
$a
$a
$a
$a
$a
$a
$a
$a
$a
$a
$a
$a
$a
$a
$a
$a
$a
$a
$a
$a
$a
$a
$a
$a
$a
$a
$a
$a
$a
$a
$a
$a
$a
$a
$a
$a
$a
$a
$a
$a
$a
$a
$d
$d
$d
$d
$d
$d
$d
$d
$d
$d
$d
$d
$d
$d
$d
$d
$d
$d
$d
$d
$d
$d
$d
$d
$d
$d
$d
$d
$d
$d
$d
$d
$d
$d
$d
$d
$d
$d
$d
$d
$d
$d
$d
$d
$d
$d
$d
$d
$d
$d
$d
$d
$d
$d
$d
$d
$d
$d
$d
$d
$d
$d
$d
$d
$d
$d
$d
$d
$d
$d
$d
$d
$d
$d
$d
$d
$d
$d
$d
$d
$d
$d
$d
$d
$d
$d
$d
$d
$d
$d
$d
$d
$d
$d
$d
$d
$d
$d
$d
$d
$d
$d
$d
$d
$d
$d
$d
$d
$d
$d
$d
$d
$d
$d
$d
$d
$d
$d
$d
$d
$d
$d
$d
$d
$d
$d
$d
$d
$d
$d
$d
$d
$d
$d
$d
$d
$d
$d
$d
$d
$d
$d
$d
$d
$d
$d
$d
$d
$d
$d
$d
$d
$d
$d
$d
$d
$d
$d
$d
$d
$d
$d
$d
$d
$d
$d
$d
$d
$d
$d
$d
$d
$d
$d
$d
$d
$d
$d
$d
$d
$d
$d
$d
$d
$d
$d
$d
$d
$d
$d
$d
$d
$d
$d
$d
$d
$d
$d
$d
$d
$d
$d
$d
$d
$d
$d
$d
$d
$d
$d
$d
$d
$d
$d
$d
$d
$d
$d
$d
$d
$d
$d
$d
$d
$d
$d
$d
$d
$d
$d
$d
$d
$d
$d
$d
$d
$d
$d
$d
$d
$d
$d
$d
$d
$d
$d
$d
$d
$d
$d
$d
$d
$d
$d
$d
$d
$d
$d
$d
$d
$d
$d
$d
$d
$d
$d
$d
$d
$d
$d
$d
$d
$d
$d
$d
$d
$d
$d
$d
$d
$d
$d
$d
$d
$d
$d
$d
$d
$d
$d
$d
$d
$d
$d
$d
$d
$d
$d
$d
$d
$d
$d
$d
$d
$d
$d
$d
$d
$d
$d
$d
$d
$d
$d
$d
$d
$d
$d
$d
$d
$d
$d
$d
$d
$d
$d
$d
$d
$d
$d
$d
$d
$d
$d
$d
$d
$d
$d
$d
$d
$d
$d
$d
$d
$d
$d
$d
$d
$d
$d
$d
$d
$d
$d
$d
$d
$d
$d
$d
$d
$d
$d
$d
$d
$d
$d
$d
$d
$d
$d
$d
$d
$d
$d
$d
$d
$d
$d
$d
$d
$d
$d
$d
$d
$d
$d
$d
$d
$d
$d
$d
$d
$d
$d
$d
$d
$d
$d
$d
$d
$d
$d
$d
$d
$d
$d
$d
$d
$d
$d
$d
$d
$d
$d
$d
$d
$d
$d
$d
$d
$d
.fend_vector_arm_abort_return
.fend_vector_arm_common_return
.fend_vector_arm_data_abort_exception
.fend_vector_arm_fiq_exception
.fend_vector_arm_high_vector
.fend_vector_arm_irq_exception
.fend_vector_arm_misc_syscall
.fend_vector_arm_prefetch_abort_exception
.fend_vector_arm_reset_exception
.fend_vector_arm_swi_exception
.fend_vector_arm_swi_syscall
.fend_vector_arm_undefined_inst_exception
.fend_vector_ipc_syscall_return
.fend_vector_sys_exchange_registers_exargs
.fend_vector_sys_schedule_exargs
.fend_vector_sys_space_control_exargs
.fend_vector_sys_thread_control_exargs
.fend_vector_syscall_return
/home/tsewell/crosstool-0.38/build/arm-linux/gcc-3.4.4-glibc-2.3.5/gcc-3.4.4/gcc/config/arm/ieee754-df.S
/home/tsewell/crosstool-0.38/build/arm-linux/gcc-3.4.4-glibc-2.3.5/gcc-3.4.4/gcc/config/arm/ieee754-df.S
/home/tsewell/crosstool-0.38/build/arm-linux/gcc-3.4.4-glibc-2.3.5/gcc-3.4.4/gcc/config/arm/ieee754-df.S
/home/tsewell/crosstool-0.38/build/arm-linux/gcc-3.4.4-glibc-2.3.5/gcc-3.4.4/gcc/config/arm/ieee754-sf.S
/home/tsewell/crosstool-0.38/build/arm-linux/gcc-3.4.4-glibc-2.3.5/gcc-3.4.4/gcc/config/arm/ieee754-sf.S
/home/tsewell/crosstool-0.38/build/arm-linux/gcc-3.4.4-glibc-2.3.5/gcc-3.4.4/gcc/config/arm/ieee754-sf.S
/home/tsewell/crosstool-0.38/build/arm-linux/gcc-3.4.4-glibc-2.3.5/gcc-3.4.4/gcc/config/arm/lib1funcs.asm
/home/tsewell/crosstool-0.38/build/arm-linux/gcc-3.4.4-glibc-2.3.5/gcc-3.4.4/gcc/config/arm/lib1funcs.asm
/home/tsewell/crosstool-0.38/build/arm-linux/gcc-3.4.4-glibc-2.3.5/gcc-3.4.4/gcc/config/arm/lib1funcs.asm
/home/tsewell/crosstool-0.38/build/arm-linux/gcc-3.4.4-glibc-2.3.5/gcc-3.4.4/gcc/config/arm/lib1funcs.asm
/home/tsewell/crosstool-0.38/build/arm-linux/gcc-3.4.4-glibc-2.3.5/gcc-3.4.4/gcc/config/arm/lib1funcs.asm
/home/tsewell/crosstool-0.38/build/arm-linux/gcc-3.4.4-glibc-2.3.5/gcc-3.4.4/gcc/config/arm/lib1funcs.asm
/home/tsewell/crosstool-0.38/build/arm-linux/gcc-3.4.4-glibc-2.3.5/gcc-3.4.4/gcc/config/arm/lib1funcs.asm
/home/tsewell/crosstool-0.38/build/arm-linux/gcc-3.4.4-glibc-2.3.5/gcc-3.4.4/gcc/config/arm/lib1funcs.asm
/home/tsewell/crosstool-0.38/build/arm-linux/gcc-3.4.4-glibc-2.3.5/gcc-3.4.4/gcc/config/arm/lib1funcs.asm
/home/tsewell/crosstool-0.38/build/arm-linux/gcc-3.4.4-glibc-2.3.5/gcc-3.4.4/gcc/config/arm/lib1funcs.asm
/home/tsewell/crosstool-0.38/build/arm-linux/gcc-3.4.4-glibc-2.3.5/gcc-3.4.4/gcc/config/arm/lib1funcs.asm
/home/tsewell/crosstool-0.38/build/arm-linux/gcc-3.4.4-glibc-2.3.5/gcc-3.4.4/gcc/config/arm/lib1funcs.asm
<built-in>
<built-in>
<built-in>
<built-in>
<built-in>
<built-in>
<built-in>
<built-in>
<command line>
<command line>
<command line>
<command line>
<command line>
<command line>
<command line>
<command line>
DCACHE_LINE_SIZE
DCACHE_SETS
DCACHE_SIZE
DCACHE_WAYS
ICACHE_LINE_SIZE
ICACHE_SETS
ICACHE_SIZE
ICACHE_WAYS
L0
L1
L1
_GLOBAL_OFFSET_TABLE_
_Z10dump_mutexP7mutex_t
_Z10free_spaceP7space_t
_Z10full_flushv
_Z10get_choicePKcS0_c
_Z10get_threadPKc
_Z10init_hellov
_Z10init_mutexv
_Z11halt_threadP5tcb_tPFvvE
_Z11idle_threadv
_Z11kdb_get_tcbv
_Z11kdebug_initv
_Z11print_dec64yibbbc
_Z11print_hex64yiibb
_Z11print_mutexmmmb
_Z11print_spacemmmb
_Z11range_flushv
_Z11restart_ipcv
_Z11switch_fromP5tcb_tPFvvE
_Z11tb_allocatemPm
_Z11valid_space9spaceid_t
_Z12allocate_tcb10threadid_t
_Z12generic_initv
_Z12init_consolev
_Z12kdebug_entryPv
_Z12memdump_loopP7space_tPv
_Z12mutex_wakeupv
_Z12print_headerv
_Z12print_stringPKcii
_Z12tb_log_eventm
_Z12tb_log_tracemPcz
_Z12tb_reply_irqv
_Z13do_ipc_helperv
_Z13init_clistidsv
_Z13init_spaceidsv
_Z13print_hex_sepmiPKc
_Z13resume_threadP5tcb_tPFvvE
_Z14allocate_space9spaceid_tP7clist_t
_Z14arm_dump_frameP17arm_irq_context_t
_Z14get_key_stringcPKc
_Z14print_cmd_pathP11cmd_group_t
_Z14return_successv
_Z14tb_irq_controlb
_Z14thread_startupv
_Z15fass_update_pdsP7space_t7pgent_tS1_m
_Z15init_root_clistv
_Z15print_tlb_entrymmmm
_Z16__assert_failurePKc
_Z16find_kernel_heapPmS_
_Z16handle_ipc_errorv
_Z16init_all_threadsv
_Z16init_tracebufferv
_Z16memory_copy_loopv
_Z16range_flush_fullv
_Z17fass_sync_addressP7space_tPvPb
_Z17finish_kernel_ipcv
_Z17init_kernel_spacev
_Z17init_root_serversv
_Z18create_idle_threadv
_Z18create_root_server10threadid_t7fpage_tm
_Z18init_tcb_allocatorv
_Z18kdb_breakin_enablev
_Z19finish_sys_schedulev
_Z19halt_current_threadPFvvE
_Z19hybrid_mutex_wakeupv
_Z19init_arm_interruptsv
_Z19init_kernel_threadsv
_Z19is_breakin_disabledv
_Z19kdb_breakin_disablev
_Z19kdb_breakin_handleri
_Z19kdb_set_object_name13object_type_emPKc
_Z19kernel_tlb_lockdownv
_Z19memory_copy_recoverv
_Z19set_thread_handlersP5tcb_t10threadid_tS1_S1_
_Z20finish_exception_ipcv
_Z20finish_perform_exregv
_Z20get_ptab_dump_rangesPPvPmPN7pgent_t8pgsize_eE
_Z20kdebug_check_breakinv
_Z21acquire_read_lock_tcbP5tcb_t
_Z21kernel_cache_lockdownv
_Z21return_ipc_error_recvP5tcb_tS0_S0_m
_Z21return_ipc_error_sendP5tcb_tS0_S0_m
_Z22enqueue_tcb_and_returnP5tcb_tS0_PFvvE
_Z22setup_initial_mappingsP7space_t
_Z23finish_arm_memory_abortv
_Z24abort_sys_thread_controlv
_Z24return_failure_pagefaultv
_Z25finish_exchange_registersv
_Z25finish_sys_thread_controlv
_Z27lookup_tcb_by_handle_lockedm
_Z4getcb
_Z4putcc
_Z7__panicv
_Z7get_decPKcmS0_
_Z7get_hexPKcmS0_
_Z7get_tcbPv
_Z7memdumpP7space_tPv
_Z7str2intPKciPmm
_Z7strncmpPcS_i
_Z8dump_tcbP5tcb_t
_Z8free_tcbP5tcb_t
_Z9do_printfPKcPv
_Z9dump_utcbP5tcb_t
_Z9get_framev
_Z9get_spacePKc
_Z9next_linkP5tcb_t
_Z9print_decmibbbc
_Z9print_hexmiibb
_Z9print_tcbmmmb
_Z9print_tid10threadid_tmmb
_Z9switch_toP5tcb_tS0_
_ZN10arm_fass_t11free_domainEP7space_t
_ZN10arm_fass_t14domain_recycleEP7space_t
_ZN10arm_fass_t18replacement_domainEv
_ZN10arm_fass_t4initEv
_ZN10arm_fass_t9clean_allEm
_ZN10arm_fass_t9get_spaceEj
_ZN10arm_fass_t9set_spaceEjP7space_t
_ZN10endpoint_t12dequeue_recvEP5tcb_t
_ZN10endpoint_t12dequeue_sendEP5tcb_t
_ZN10endpoint_t12enqueue_recvEP5tcb_t
_ZN10endpoint_t12enqueue_sendEP5tcb_t
_ZN10endpoint_t4initEP5tcb_t
_ZN11cmd_group_t15interact_by_keyEv
_ZN11cmd_group_t19interact_by_commandEv
_ZN11cmd_group_t8interactEPS_Pc
_ZN11macro_set_t3getEm
_ZN11macro_set_t4nextEv
_ZN11macro_set_t4sizeEv
_ZN11macro_set_t5printEv
_ZN11macro_set_t5resetEv
_ZN11scheduler_t11do_scheduleEP5tcb_tmmm
_ZN11scheduler_t12current_timeE
_ZN11scheduler_t13fast_scheduleEP5tcb_tNS_20fast_schedule_type_eES1_PFvvEm
_ZN11scheduler_t14smt_rescheduleEP5tcb_t
_ZN11scheduler_t16end_of_timesliceEP5tcb_t
_ZN11scheduler_t17set_active_threadEP5tcb_tS1_
_ZN11scheduler_t20get_highest_priorityEv
_ZN11scheduler_t22set_effective_priorityEP5tcb_ti
_ZN11scheduler_t26release_and_reschedule_tcbEP5tcb_t
_ZN11scheduler_t4initEb
_ZN11scheduler_t5startEm
_ZN11scheduler_t5yieldEP5tcb_tS1_PFvvE
_ZN11scheduler_t8scheduleEP5tcb_tPFvvEm
_ZN11syncpoint_t13is_deadlockedEP5tcb_tPiS2_
_ZN11syncpoint_t14become_donateeEP5tcb_t
_ZN11syncpoint_t15dequeue_blockedEP5tcb_t
_ZN11syncpoint_t15enqueue_blockedEP5tcb_t
_ZN11syncpoint_t15release_donateeEv
_ZN11syncpoint_t15report_deadlockEP5tcb_tii
_ZN11syncpoint_t18enqueue_tcb_sortedEP5tcb_t
_ZN11syncpoint_t25propagate_priority_changeEv
_ZN11syncpoint_t27propagate_priority_increaseEi
_ZN11syncpoint_t4initEP5tcb_t
_ZN11syncpoint_t5blockEP5tcb_t
_ZN11syncpoint_t7refreshEP5tcb_t
_ZN11syncpoint_t7unblockEP5tcb_t
_ZN12mutex_user_t10get_holderEP5tcb_t
_ZN12mutex_user_t10set_holderEP5tcb_tmb
_ZN12mutex_user_t17atomic_set_holderEP5tcb_tm
_ZN12mutex_user_t20atomic_set_contendedEP5tcb_t
_ZN12mutex_user_t8set_freeEP5tcb_t
_ZN12prio_queue_t17set_base_priorityEP5tcb_ti
_ZN12prio_queue_t22set_effective_priorityEP5tcb_ti
_ZN12prio_queue_t4initEv
_ZN12prio_queue_t7dequeueEP5tcb_t
_ZN12prio_queue_t7enqueueEP5tcb_t
_ZN13small_alloc_t10free_blockEP12kmem_group_tP19small_alloc_block_t
_ZN13small_alloc_t14allocate_blockEP12kmem_group_t
_ZN13small_alloc_t4freeEPv
_ZN13small_alloc_t4initEP12kmem_group_tmm
_ZN13small_alloc_t8allocateEv
_ZN15PlatformSupport12enter_kdebugEPc
_ZN15PlatformSupport14deliver_notifyEPvmPFvvE
_ZN15PlatformSupport17lookup_tcb_lockedE10threadid_t
_ZN15PlatformSupport21add_mapping_to_kernelEPvS0_NS_8pgsize_eENS_5rwx_eEbNS_11memattrib_eE
_ZN15PlatformSupport32scheduler_handle_timer_interruptEbPFvvE
_ZN15PlatformSupport6printfEPKcz
_ZN15PlatformSupport8mem_freeEPvm
_ZN15PlatformSupport8scheduleEPFvvE
_ZN15PlatformSupport9mem_allocEmb
_ZN15cap_reference_t13add_referenceEP5cap_tS1_
_ZN15cap_reference_t13add_referenceEP5tcb_tP5cap_t
_ZN15cap_reference_t16remove_referenceEP5cap_tS1_
_ZN15cap_reference_t16remove_referenceEP5tcb_tP5cap_t
_ZN15cap_reference_t18cap_reference_lockE
_ZN15cap_reference_t20invalidate_referenceEP5cap_t
_ZN15cap_reference_t20invalidate_referenceEP5tcb_t
_ZN15generic_space_t10read_fpageE7fpage_tP11phys_desc_tP11perm_desc_t
_ZN15generic_space_t11unmap_fpageE7fpage_tb
_ZN15generic_space_t12readmem_physEPvS0_
_ZN15generic_space_t13allocate_utcbEP5tcb_t
_ZN15generic_space_t14free_utcb_pageEP7pgent_tNS0_8pgsize_eEPv
_ZN15generic_space_t14lookup_mappingEPvPP7pgent_tPNS1_8pgsize_eE
_ZN15generic_space_t16handle_pagefaultEPvS0_NS_8access_eEbPFvvE
_ZN15generic_space_t18flush_tlbent_localEP7space_tPvm
_ZN15generic_space_t19check_utcb_locationEm
_ZN15generic_space_t19free_page_directoryEv
_ZN15generic_space_t20init_kernel_mappingsEv
_ZN15generic_space_t21free_utcb_area_memoryEv
_ZN15generic_space_t23allocate_page_directoryEv
_ZN15generic_space_t4freeEv
_ZN15generic_space_t4initE7fpage_t
_ZN15generic_space_t7readmemEPvPm
_ZN15generic_space_t8activateEP5tcb_t
_ZN15generic_space_t9arch_freeEv
_ZN15generic_space_t9flush_tlbEP7space_t
_ZN15generic_space_t9free_utcbEP6utcb_t
_ZN15generic_space_t9map_fpageE11phys_desc_t7fpage_t
_ZN18thread_resources_t4freeEP5tcb_t
_ZN18thread_resources_t4initEP5tcb_t
_ZN18thread_resources_t5purgeEP5tcb_t
_ZN5kdb_t10cmd__abortEP11cmd_group_t
_ZN5kdb_t10cmd__priorEP11cmd_group_t
_ZN5kdb_t10cmd_configEP11cmd_group_t
_ZN5kdb_t10cmd_rebootEP11cmd_group_t
_ZN5kdb_t11cmd_memdumpEP11cmd_group_t
_ZN5kdb_t11cmd_tb_dumpEP11cmd_group_t
_ZN5kdb_t11cmd_tb_infoEP11cmd_group_t
_ZN5kdb_t11cmd_tp_confEP11cmd_group_t
_ZN5kdb_t11cmd_tp_listEP11cmd_group_t
_ZN5kdb_t12cmd_dump_tlbEP11cmd_group_t
_ZN5kdb_t12cmd_show_tcbEP11cmd_group_t
_ZN5kdb_t12cmd_tb_resetEP11cmd_group_t
_ZN5kdb_t12cmd_tp_resetEP11cmd_group_t
_ZN5kdb_t12cmd_wordsizeEP11cmd_group_t
_ZN5kdb_t13cmd_dump_ptabEP11cmd_group_t
_ZN5kdb_t13cmd_tp_enableEP11cmd_group_t
_ZN5kdb_t14cmd_dump_frameEP11cmd_group_t
_ZN5kdb_t14cmd_kmem_statsEP11cmd_group_t
_ZN5kdb_t14cmd_show_clistEP11cmd_group_t
_ZN5kdb_t14cmd_show_readyEP11cmd_group_t
_ZN5kdb_t14cmd_show_spaceEP11cmd_group_t
_ZN5kdb_t14cmd_statisticsEP11cmd_group_t
_ZN5kdb_t14cmd_tb_logmaskEP11cmd_group_t
_ZN5kdb_t14cmd_tid_formatEP11cmd_group_t
_ZN5kdb_t14cmd_tp_disableEP11cmd_group_t
_ZN5kdb_t15cmd_list_clistsEP11cmd_group_t
_ZN5kdb_t15cmd_list_spacesEP11cmd_group_t
_ZN5kdb_t15cmd_mode_switchEP11cmd_group_t
_ZN5kdb_t15cmd_show_tcbextEP11cmd_group_t
_ZN5kdb_t15cmd_tp_conf_allEP11cmd_group_t
_ZN5kdb_t15cmd_tracebufferEP11cmd_group_t
_ZN5kdb_t15cmd_tracepointsEP11cmd_group_t
_ZN5kdb_t16cmd_memdump_physEP11cmd_group_t
_ZN5kdb_t16cmd_show_mutexesEP11cmd_group_t
_ZN5kdb_t17cmd_dump_cp15regsEP11cmd_group_t
_ZN5kdb_t18cmd_memdump_remoteEP11cmd_group_t
_ZN5kdb_t18cmd_show_dep_graphEP11cmd_group_t
_ZN5kdb_t22cmd_dump_current_frameEP11cmd_group_t
_ZN5kdb_t3preEv
_ZN5kdb_t4initEv
_ZN5kdb_t4postEv
_ZN5kdb_t5entryEPv
_ZN5kdb_t6cmd_goEP11cmd_group_t
_ZN5kdb_t8cmd_archEP11cmd_group_t
_ZN5kdb_t9cmd__helpEP11cmd_group_t
_ZN5tcb_t10delete_tcbEv
_ZN5tcb_t10save_stateEm
_ZN5tcb_t11cancel_ipcsEv
_ZN5tcb_t13restore_stateEm
_ZN5tcb_t15release_mutexesEv
_ZN5tcb_t17remove_dependencyEv
_ZN5tcb_t18send_pagefault_ipcEPvS0_N15generic_space_t8access_eEPFvvE
_ZN5tcb_t20create_kernel_threadE10threadid_tP6utcb_t
_ZN5tcb_t20create_startup_stackEPFvvE
_ZN5tcb_t23calc_effective_priorityEv
_ZN5tcb_t4initE10threadid_t
_ZN5tcb_t6unwindEPS_
_ZN5tcb_t8activateEPFvvE
_ZN6kmem_t4freeEPvm
_ZN6kmem_t4initEPvS0_
_ZN6kmem_t5allocEmb
_ZN7clist_t10lookup_capE10threadid_t
_ZN7clist_t11add_ipc_capE10threadid_tP5tcb_t
_ZN7clist_t14add_thread_capE10threadid_tP5tcb_t
_ZN7clist_t14remove_ipc_capE10threadid_t
_ZN7clist_t17remove_thread_capE10threadid_t
_ZN7clist_t21lookup_ipc_cap_lockedE10threadid_t
_ZN7clist_t24lookup_thread_cap_lockedE10threadid_tb
_ZN7clist_t26lookup_thread_cap_unlockedE10threadid_t
_ZN7clist_t8is_emptyEv
_ZN7mutex_t10set_holderEP5tcb_t
_ZN7mutex_t11hybrid_lockEP5tcb_t12mutex_user_tPFvvE
_ZN7mutex_t12dequeue_heldEP5tcb_t
_ZN7mutex_t12enqueue_heldEP5tcb_t
_ZN7mutex_t13hybrid_unlockEP5tcb_t12mutex_user_tPFvvE
_ZN7mutex_t15dequeue_presentEv
_ZN7mutex_t15enqueue_presentEv
_ZN7mutex_t4initE9mutexid_t
_ZN7mutex_t7acquireEP5tcb_t
_ZN7mutex_t7destroyEv
_ZN7mutex_t7releaseEv
_ZN7space_t11add_mappingEPvS0_N7pgent_t8pgsize_eENS_5rwx_eEb11memattrib_e
_ZN7space_t13domain_unlinkEP15generic_space_t
_ZN7space_t15is_client_spaceEPS_
_ZN7space_t17add_shared_domainEPS_b
_ZN7space_t17is_sharing_domainEPS_
_ZN7space_t18window_share_fpageEPS_7fpage_t
_ZN7space_t20flush_sharing_spacesEv
_ZN7space_t20is_manager_of_domainEPS_
_ZN7space_t20remove_shared_domainEPS_
_ZN7space_t23flush_sharing_on_deleteEv
_ZN8Platform10irq_ownersE
_ZN8Platform11disable_fiqEv
_ZN8Platform11init_clocksEv
_ZN8Platform11irq_mappingE
_ZN8Platform11irq_pendingE
_ZN8Platform11serial_getcEb
_ZN8Platform11serial_initEv
_ZN8Platform11serial_putcEc
_ZN8Platform14ticks_disabledE
_ZN8Platform16config_interruptEPNS_10irq_desc_tEPv13irq_control_tS2_
_ZN8Platform16versatile_do_irqEmPFvvE
_ZN8Platform17dcache_attributesEPmS0_S0_S0_
_ZN8Platform17icache_attributesEPmS0_S0_S0_
_ZN8Platform18disable_timer_tickEv
_ZN8Platform18versatile_mask_irqEm
_ZN8Platform19do_platform_controlEPv14plat_control_tmmmPFvvE
_ZN8Platform20versatile_unmask_irqEm
_ZN8Platform22handle_timer_interruptEbPFvvE
_ZN8Platform25versatile_init_interruptsEv
_ZN8Platform26security_control_interruptEPNS_10irq_desc_tEPvm
_ZN8Platform4initEii
_ZN8Platform6rebootEv
_ZZ11init_memoryE17_kernel_top_level
_ZZ12sys_scheduleE19__PRETTY_FUNCTION__
_ZZ16arm_memory_abortE12__FUNCTION__
_ZZ16arm_memory_abortE19__PRETTY_FUNCTION__
_ZZ17init_root_serversvE19__PRETTY_FUNCTION__
_ZZ18create_root_server10threadid_t7fpage_tmE19__PRETTY_FUNCTION__
_ZZ18sys_thread_controlE12__FUNCTION__
_ZZ19finish_sys_schedulevE12__FUNCTION__
_ZZ19kernel_tlb_lockdownvE12__FUNCTION__
_ZZ20finish_exception_ipcvE12__FUNCTION__
_ZZ22setup_initial_mappingsP7space_tE19__PRETTY_FUNCTION__
_ZZ7sys_ipcE19__PRETTY_FUNCTION__
_ZZN15generic_space_t16handle_pagefaultEPvS0_NS_8access_eEbPFvvEE12__FUNCTION__
_ZZN15generic_space_t16handle_pagefaultEPvS0_NS_8access_eEbPFvvEE19__PRETTY_FUNCTION__
_ZZN18thread_resources_t5purgeEP5tcb_tE19__PRETTY_FUNCTION__
_ZZN5kdb_t13cmd_dump_ptabEP11cmd_group_tE6spaces
_ZZN5kdb_t5entryEPvE8kdb_lock
_ZZN5tcb_t6unwindEPS_E19__PRETTY_FUNCTION__
_ZZN7space_t18window_share_fpageEPS_7fpage_tE19__PRETTY_FUNCTION__
_ZZN7space_t20flush_sharing_spacesEvE19__PRETTY_FUNCTION__
_ZZN7space_t23flush_sharing_on_deleteEvE19__PRETTY_FUNCTION__
_ZZN8Platform4initEiiE12__FUNCTION__
_ashldi3
_clz_tab
_div0
__idle_tcb
__idle_utcb
__kdb_arch_cmd__abort
__kdb_arch_cmd__help
__kdb_arch_cmd__prior
__kdb_arch_cmd_dump_cp15regs
__kdb_arch_cmd_dump_tlb
__kdb_config_cmd__abort
__kdb_config_cmd__help
__kdb_config_cmd__prior
__kdb_config_cmd_mode_switch
__kdb_config_cmd_tid_format
__kdb_config_cmd_wordsize
__kdb_group_arch
__kdb_group_config
__kdb_group_root
__kdb_group_statistics
__kdb_group_tracebuf
__kdb_group_tracepoints
__kdb_root_cmd__abort
__kdb_root_cmd__help
__kdb_root_cmd__prior
__kdb_root_cmd_arch
__kdb_root_cmd_config
__kdb_root_cmd_dump_current_frame
__kdb_root_cmd_dump_frame
__kdb_root_cmd_dump_ptab
__kdb_root_cmd_go
__kdb_root_cmd_list_clists
__kdb_root_cmd_list_spaces
__kdb_root_cmd_memdump
__kdb_root_cmd_memdump_phys
__kdb_root_cmd_memdump_remote
__kdb_root_cmd_reboot
__kdb_root_cmd_show_clist
__kdb_root_cmd_show_dep_graph
__kdb_root_cmd_show_mutexes
__kdb_root_cmd_show_ready
__kdb_root_cmd_show_space
__kdb_root_cmd_show_tcb
__kdb_root_cmd_show_tcbext
__kdb_root_cmd_statistics
__kdb_root_cmd_tracebuffer
__kdb_root_cmd_tracepoints
__kdb_statistics_cmd__abort
__kdb_statistics_cmd__help
__kdb_statistics_cmd__prior
__kdb_statistics_cmd_kmem_stats
__kdb_tracebuf_cmd__abort
__kdb_tracebuf_cmd__help
__kdb_tracebuf_cmd__prior
__kdb_tracebuf_cmd_tb_dump
__kdb_tracebuf_cmd_tb_info
__kdb_tracebuf_cmd_tb_logmask
__kdb_tracebuf_cmd_tb_reset
__kdb_tracepoints_cmd__abort
__kdb_tracepoints_cmd__help
__kdb_tracepoints_cmd__prior
__kdb_tracepoints_cmd_tp_conf
__kdb_tracepoints_cmd_tp_conf_all
__kdb_tracepoints_cmd_tp_disable
__kdb_tracepoints_cmd_tp_enable
__kdb_tracepoints_cmd_tp_list
__kdb_tracepoints_cmd_tp_reset
__kernel_space_object
__kmem_group_kmem_clist
__kmem_group_kmem_clistids
__kmem_group_kmem_ll
__kmem_group_kmem_misc
__kmem_group_kmem_mutex
__kmem_group_kmem_mutexids
__kmem_group_kmem_pgtab
__kmem_group_kmem_root_clist
__kmem_group_kmem_space
__kmem_group_kmem_spaceids
__kmem_group_kmem_stack
__kmem_group_kmem_tcb
__kmem_group_kmem_trace
__kmem_group_kmem_utcb
__kmem_groups
__macro_set___kdb_group_arch_array
__macro_set___kdb_group_arch_count
__macro_set___kdb_group_config_array
__macro_set___kdb_group_config_count
__macro_set___kdb_group_root_array
__macro_set___kdb_group_root_count
__macro_set___kdb_group_statistics_array
__macro_set___kdb_group_statistics_count
__macro_set___kdb_group_tracebuf_array
__macro_set___kdb_group_tracebuf_count
__macro_set___kdb_group_tracepoints_array
__macro_set___kdb_group_tracepoints_count
__macro_set___kmem_groups_array
__macro_set___kmem_groups_count
__macro_set_kdb_initfuncs_array
__macro_set_kdb_initfuncs_count
__macro_set_tracepoint_set_array
__macro_set_tracepoint_set_count
__phys_addr_ram
__phys_addr_rom
__scheduler
__setentry___kdb_group_arch___kdb_arch_cmd__abort
__setentry___kdb_group_arch___kdb_arch_cmd__help
__setentry___kdb_group_arch___kdb_arch_cmd__prior
__setentry___kdb_group_arch___kdb_arch_cmd_dump_cp15regs
__setentry___kdb_group_arch___kdb_arch_cmd_dump_tlb
__setentry___kdb_group_config___kdb_config_cmd__abort
__setentry___kdb_group_config___kdb_config_cmd__help
__setentry___kdb_group_config___kdb_config_cmd__prior
__setentry___kdb_group_config___kdb_config_cmd_mode_switch
__setentry___kdb_group_config___kdb_config_cmd_tid_format
__setentry___kdb_group_config___kdb_config_cmd_wordsize
__setentry___kdb_group_root___kdb_root_cmd__abort
__setentry___kdb_group_root___kdb_root_cmd__help
__setentry___kdb_group_root___kdb_root_cmd__prior
__setentry___kdb_group_root___kdb_root_cmd_arch
__setentry___kdb_group_root___kdb_root_cmd_config
__setentry___kdb_group_root___kdb_root_cmd_dump_current_frame
__setentry___kdb_group_root___kdb_root_cmd_dump_frame
__setentry___kdb_group_root___kdb_root_cmd_dump_ptab
__setentry___kdb_group_root___kdb_root_cmd_go
__setentry___kdb_group_root___kdb_root_cmd_list_clists
__setentry___kdb_group_root___kdb_root_cmd_list_spaces
__setentry___kdb_group_root___kdb_root_cmd_memdump
__setentry___kdb_group_root___kdb_root_cmd_memdump_phys
__setentry___kdb_group_root___kdb_root_cmd_memdump_remote
__setentry___kdb_group_root___kdb_root_cmd_reboot
__setentry___kdb_group_root___kdb_root_cmd_show_clist
__setentry___kdb_group_root___kdb_root_cmd_show_dep_graph
__setentry___kdb_group_root___kdb_root_cmd_show_mutexes
__setentry___kdb_group_root___kdb_root_cmd_show_ready
__setentry___kdb_group_root___kdb_root_cmd_show_space
__setentry___kdb_group_root___kdb_root_cmd_show_tcb
__setentry___kdb_group_root___kdb_root_cmd_show_tcbext
__setentry___kdb_group_root___kdb_root_cmd_statistics
__setentry___kdb_group_root___kdb_root_cmd_tracebuffer
__setentry___kdb_group_root___kdb_root_cmd_tracepoints
__setentry___kdb_group_statistics___kdb_statistics_cmd__abort
__setentry___kdb_group_statistics___kdb_statistics_cmd__help
__setentry___kdb_group_statistics___kdb_statistics_cmd__prior
__setentry___kdb_group_statistics___kdb_statistics_cmd_kmem_stats
__setentry___kdb_group_tracebuf___kdb_tracebuf_cmd__abort
__setentry___kdb_group_tracebuf___kdb_tracebuf_cmd__help
__setentry___kdb_group_tracebuf___kdb_tracebuf_cmd__prior
__setentry___kdb_group_tracebuf___kdb_tracebuf_cmd_tb_dump
__setentry___kdb_group_tracebuf___kdb_tracebuf_cmd_tb_info
__setentry___kdb_group_tracebuf___kdb_tracebuf_cmd_tb_logmask
__setentry___kdb_group_tracebuf___kdb_tracebuf_cmd_tb_reset
__setentry___kdb_group_tracepoints___kdb_tracepoints_cmd__abort
__setentry___kdb_group_tracepoints___kdb_tracepoints_cmd__help
__setentry___kdb_group_tracepoints___kdb_tracepoints_cmd__prior
__setentry___kdb_group_tracepoints___kdb_tracepoints_cmd_tp_conf
__setentry___kdb_group_tracepoints___kdb_tracepoints_cmd_tp_conf_all
__setentry___kdb_group_tracepoints___kdb_tracepoints_cmd_tp_disable
__setentry___kdb_group_tracepoints___kdb_tracepoints_cmd_tp_enable
__setentry___kdb_group_tracepoints___kdb_tracepoints_cmd_tp_list
__setentry___kdb_group_tracepoints___kdb_tracepoints_cmd_tp_reset
__setentry___kmem_groups___kmem_group_kmem_clist
__setentry___kmem_groups___kmem_group_kmem_clistids
__setentry___kmem_groups___kmem_group_kmem_ll
__setentry___kmem_groups___kmem_group_kmem_misc
__setentry___kmem_groups___kmem_group_kmem_mutex
__setentry___kmem_groups___kmem_group_kmem_mutexids
__setentry___kmem_groups___kmem_group_kmem_pgtab
__setentry___kmem_groups___kmem_group_kmem_root_clist
__setentry___kmem_groups___kmem_group_kmem_space
__setentry___kmem_groups___kmem_group_kmem_spaceids
__setentry___kmem_groups___kmem_group_kmem_stack
__setentry___kmem_groups___kmem_group_kmem_tcb
__setentry___kmem_groups___kmem_group_kmem_trace
__setentry___kmem_groups___kmem_group_kmem_utcb
__setentry_tracepoint_set___tracepoint_ARM_DATA_ABORT
__setentry_tracepoint_set___tracepoint_ARM_FASS_RECYCLE
__setentry_tracepoint_set___tracepoint_ARM_PAGE_FAULT
__setentry_tracepoint_set___tracepoint_DEADLOCK_DETECTED
__setentry_tracepoint_set___tracepoint_EXCEPTION_IPC_GENERAL
__setentry_tracepoint_set___tracepoint_EXCEPTION_IPC_SYSCALL
__setentry_tracepoint_set___tracepoint_FASTPATH_ASYNC_IPC
__setentry_tracepoint_set___tracepoint_FPAGE_MAP
__setentry_tracepoint_set___tracepoint_FPAGE_OVERMAP
__setentry_tracepoint_set___tracepoint_FPAGE_READ
__setentry_tracepoint_set___tracepoint_FPAGE_UNMAP
__setentry_tracepoint_set___tracepoint_INTERRUPT
__setentry_tracepoint_set___tracepoint_IPC_TRANSFER
__setentry_tracepoint_set___tracepoint_KMEM_ALLOC
__setentry_tracepoint_set___tracepoint_KMEM_FREE
__setentry_tracepoint_set___tracepoint_PAGEFAULT_KERNEL
__setentry_tracepoint_set___tracepoint_PAGEFAULT_USER
__setentry_tracepoint_set___tracepoint_PREEMPTION_FAULT
__setentry_tracepoint_set___tracepoint_PREEMPTION_SIGNALED
__setentry_tracepoint_set___tracepoint_SYSCALL_CACHE_CONTROL
__setentry_tracepoint_set___tracepoint_SYSCALL_CAP_CONTROL
__setentry_tracepoint_set___tracepoint_SYSCALL_EXCHANGE_REGISTERS
__setentry_tracepoint_set___tracepoint_SYSCALL_INTERRUPT_CONTROL
__setentry_tracepoint_set___tracepoint_SYSCALL_IPC
__setentry_tracepoint_set___tracepoint_SYSCALL_MAP_CONTROL
__setentry_tracepoint_set___tracepoint_SYSCALL_MEMORY_COPY
__setentry_tracepoint_set___tracepoint_SYSCALL_MUTEX
__setentry_tracepoint_set___tracepoint_SYSCALL_MUTEX_CONTROL
__setentry_tracepoint_set___tracepoint_SYSCALL_PLATFORM_CONTROL
__setentry_tracepoint_set___tracepoint_SYSCALL_SCHEDULE
__setentry_tracepoint_set___tracepoint_SYSCALL_SECURITY_CONTROL
__setentry_tracepoint_set___tracepoint_SYSCALL_SPACE_CONTROL
__setentry_tracepoint_set___tracepoint_SYSCALL_SPACE_SWITCH
__setentry_tracepoint_set___tracepoint_SYSCALL_THREAD_CONTROL
__setentry_tracepoint_set___tracepoint_SYSCALL_THREAD_SWITCH
__setentry_tracepoint_set___tracepoint_TIMESLICE_EXPIRED
__setentry_tracepoint_set___tracepoint_UNWIND
__stack
__tracepoint_ARM_DATA_ABORT
__tracepoint_ARM_FASS_RECYCLE
__tracepoint_ARM_PAGE_FAULT
__tracepoint_DEADLOCK_DETECTED
__tracepoint_EXCEPTION_IPC_GENERAL
__tracepoint_EXCEPTION_IPC_SYSCALL
__tracepoint_FASTPATH_ASYNC_IPC
__tracepoint_FPAGE_MAP
__tracepoint_FPAGE_OVERMAP
__tracepoint_FPAGE_READ
__tracepoint_FPAGE_UNMAP
__tracepoint_INTERRUPT
__tracepoint_IPC_TRANSFER
__tracepoint_KMEM_ALLOC
__tracepoint_KMEM_FREE
__tracepoint_PAGEFAULT_KERNEL
__tracepoint_PAGEFAULT_USER
__tracepoint_PREEMPTION_FAULT
__tracepoint_PREEMPTION_SIGNALED
__tracepoint_SYSCALL_CACHE_CONTROL
__tracepoint_SYSCALL_CAP_CONTROL
__tracepoint_SYSCALL_EXCHANGE_REGISTERS
__tracepoint_SYSCALL_INTERRUPT_CONTROL
__tracepoint_SYSCALL_IPC
__tracepoint_SYSCALL_MAP_CONTROL
__tracepoint_SYSCALL_MEMORY_COPY
__tracepoint_SYSCALL_MUTEX
__tracepoint_SYSCALL_MUTEX_CONTROL
__tracepoint_SYSCALL_PLATFORM_CONTROL
__tracepoint_SYSCALL_SCHEDULE
__tracepoint_SYSCALL_SECURITY_CONTROL
__tracepoint_SYSCALL_SPACE_CONTROL
__tracepoint_SYSCALL_SPACE_SWITCH
__tracepoint_SYSCALL_THREAD_CONTROL
__tracepoint_SYSCALL_THREAD_SWITCH
__tracepoint_TIMESLICE_EXPIRED
__tracepoint_UNWIND
_udivdi3
_udivsi3
_umoddi3
_umodsi3
__vector_vaddr
_end
_end_init
_end_ram
_end_rom
_end_setlist
_end_sets
_kernel_init_stack
_kernel_space_pagetable
_start
_start_data
_start_init
_start_ram
_start_rom
_start_setlist
_start_sets
add_mapping_init
add_rom_mapping_init
arch
arch_init
arm_abort_return
arm_abort_return_kernel
arm_common_return
arm_data_abort_exception
arm_fass
arm_finish_callback_from_interrupt
arm_finish_callback_restoreregs
arm_fiq_exception
arm_high_vector
arm_irq_exception
arm_memory_abort
arm_misc_syscall
arm_perform_callback_from_interrupt
arm_perform_callback_saveregs
arm_prefetch_abort_exception
arm_reset_exception
arm_return_from_notify0
arm_return_from_notify1
arm_std_syscall
arm_swi_exception
arm_swi_syscall
arm_syscall_vectors
arm_undefined_inst_exception
arm_utcb_page
asid.cc
assert.cc
async_fp_helper
async_fp_helper_asm
async_no_acceptor
async_no_trigger
breakin_disabled
build/pistachio/include/compat/c.h
build/pistachio/include/compat/c.h
build/pistachio/include/compat/c.h
build/pistachio/include/compat/c.h
build/pistachio/include/compat/c.h
build/pistachio/include/compat/c.h
build/pistachio/include/compat/c.h
build/pistachio/include/compat/c.h
build/pistachio/include/compat/c.h
build/pistachio/include/compat/c.h
build/pistachio/include/compat/toolchain/gnu/c.h
build/pistachio/include/compat/toolchain/gnu/c.h
build/pistachio/include/compat/toolchain/gnu/c.h
build/pistachio/include/compat/toolchain/gnu/c.h
build/pistachio/include/compat/toolchain/gnu/c.h
build/pistachio/include/kernel/arch/asm.h
build/pistachio/include/kernel/arch/asm.h
build/pistachio/include/kernel/arch/asm.h
build/pistachio/include/kernel/arch/asm.h
build/pistachio/include/kernel/arch/asm.h
build/pistachio/include/kernel/arch/asm.h
build/pistachio/include/kernel/arch/asm.h
build/pistachio/include/kernel/arch/asm.h
build/pistachio/include/kernel/arch/asm_gnu.h
build/pistachio/include/kernel/arch/asm_gnu.h
build/pistachio/include/kernel/arch/asm_gnu.h
build/pistachio/include/kernel/arch/asm_gnu.h
build/pistachio/include/kernel/arch/asm_gnu.h
build/pistachio/include/kernel/arch/config.h
build/pistachio/include/kernel/arch/config.h
build/pistachio/include/kernel/arch/config.h
build/pistachio/include/kernel/arch/config.h
build/pistachio/include/kernel/arch/config.h
build/pistachio/include/kernel/arch/config.h
build/pistachio/include/kernel/arch/config.h
build/pistachio/include/kernel/arch/config.h
build/pistachio/include/kernel/arch/config.h
build/pistachio/include/kernel/arch/config.h
build/pistachio/include/kernel/arch/config.h
build/pistachio/include/kernel/arch/config.h
build/pistachio/include/kernel/arch/config.h
build/pistachio/include/kernel/arch/config.h
build/pistachio/include/kernel/arch/config.h
build/pistachio/include/kernel/arch/config.h
build/pistachio/include/kernel/arch/config.h
build/pistachio/include/kernel/arch/config.h
build/pistachio/include/kernel/arch/config.h
build/pistachio/include/kernel/arch/config.h
build/pistachio/include/kernel/arch/config.h
build/pistachio/include/kernel/arch/config.h
build/pistachio/include/kernel/arch/config.h
build/pistachio/include/kernel/arch/config.h
build/pistachio/include/kernel/arch/config.h
build/pistachio/include/kernel/arch/config.h
build/pistachio/include/kernel/arch/config.h
build/pistachio/include/kernel/arch/config.h
build/pistachio/include/kernel/arch/config.h
build/pistachio/include/kernel/arch/config.h
build/pistachio/include/kernel/arch/page.h
build/pistachio/include/kernel/arch/page.h
build/pistachio/include/kernel/arch/page.h
build/pistachio/include/kernel/arch/page.h
build/pistachio/include/kernel/arch/page.h
build/pistachio/include/kernel/arch/ver/config.h
build/pistachio/include/kernel/arch/ver/config.h
build/pistachio/include/kernel/arch/ver/config.h
build/pistachio/include/kernel/arch/ver/config.h
build/pistachio/include/kernel/arch/ver/config.h
build/pistachio/include/kernel/arch/ver/utcb.h
build/pistachio/include/kernel/arch/ver/utcb.h
build/pistachio/include/kernel/arch/ver/utcb.h
build/pistachio/include/kernel/config.h
build/pistachio/include/kernel/config.h
build/pistachio/include/kernel/config.h
build/pistachio/include/kernel/config.h
build/pistachio/include/kernel/config.h
build/pistachio/include/kernel/config.h
build/pistachio/include/kernel/config.h
build/pistachio/include/kernel/config.h
build/pistachio/include/kernel/config.h
build/pistachio/include/kernel/config.h
build/pistachio/include/kernel/cpu/syscon.h
build/pistachio/include/kernel/cpu/syscon.h
build/pistachio/include/kernel/cpu/syscon.h
build/pistachio/include/kernel/cpu/syscon.h
build/pistachio/include/kernel/cpu/syscon.h
build/pistachio/include/kernel/l4.h
build/pistachio/include/kernel/l4.h
build/pistachio/include/kernel/l4.h
build/pistachio/include/kernel/l4.h
build/pistachio/include/kernel/l4.h
build/pistachio/include/kernel/l4.h
build/pistachio/include/kernel/l4.h
build/pistachio/include/kernel/l4.h
build/pistachio/include/kernel/l4.h
build/pistachio/include/kernel/macros.h
build/pistachio/include/kernel/macros.h
build/pistachio/include/kernel/macros.h
build/pistachio/include/kernel/macros.h
build/pistachio/include/kernel/macros.h
build/pistachio/include/kernel/macros.h
build/pistachio/include/kernel/macros.h
build/pistachio/include/kernel/macros.h
build/pistachio/include/kernel/macros.h
build/pistachio/include/kernel/macros.h
build/pistachio/include/kernel/macros.h
build/pistachio/include/kernel/macros.h
build/pistachio/include/kernel/macros.h
build/pistachio/include/kernel/macros.h
build/pistachio/include/kernel/macros.h
build/pistachio/include/kernel/types.h
build/pistachio/include/kernel/types.h
build/pistachio/include/kernel/types.h
build/pistachio/include/kernel/types.h
build/pistachio/include/kernel/types.h
build/pistachio/include/l4/arch/config.h
build/pistachio/include/l4/arch/config.h
build/pistachio/include/l4/arch/config.h
build/pistachio/include/l4/arch/config.h
build/pistachio/include/l4/arch/config.h
build/pistachio/include/l4/arch/syscalls_asm.h
build/pistachio/include/l4/arch/syscalls_asm.h
build/pistachio/include/l4/arch/syscalls_asm.h
build/pistachio/include/l4/arch/vregs.h
build/pistachio/include/l4/arch/vregs.h
build/pistachio/include/l4/arch/vregs.h
build/pistachio/include/l4/arch/vregs.h
build/pistachio/include/l4/arch/vregs.h
build/pistachio/include/l4/arch/vregs.h
build/pistachio/include/l4/cust/utcb.h
build/pistachio/include/l4/cust/utcb.h
build/pistachio/include/l4/cust/vregs.h
build/pistachio/include/l4/cust/vregs.h
build/pistachio/include/l4/macros.h
build/pistachio/include/l4/macros.h
build/pistachio/include/l4/macros.h
build/pistachio/include/l4/macros.h
build/pistachio/include/l4/macros.h
build/pistachio/object/pistachio/include/arch/asm.h
build/pistachio/object/pistachio/include/arch/asm.h
build/pistachio/object/pistachio/include/arch/asm.h
build/pistachio/object/pistachio/include/arch/asm.h
build/pistachio/object/pistachio/include/arch/asm.h
build/pistachio/object/pistachio/include/arch/exception.h
build/pistachio/object/pistachio/include/arch/fass.h
build/pistachio/object/pistachio/include/arch/fass.h
build/pistachio/object/pistachio/include/arch/globals.h
build/pistachio/object/pistachio/include/arch/globals.h
build/pistachio/object/pistachio/include/arch/globals.h
build/pistachio/object/pistachio/include/arch/globals.h
build/pistachio/object/pistachio/include/arch/syscalls.h
build/pistachio/object/pistachio/include/arch/syscalls.h
build/pistachio/object/pistachio/include/arch/syscalls.h
build/pistachio/object/pistachio/include/arch/syscalls.h
build/pistachio/object/pistachio/include/arch/syscalls.h
build/pistachio/object/pistachio/include/arch/syscalls.h
build/pistachio/object/pistachio/include/arch/syscalls.h
build/pistachio/object/pistachio/include/arch/syscalls.h
build/pistachio/object/pistachio/include/arch/syscalls.h
build/pistachio/object/pistachio/include/arch/syscalls.h
build/pistachio/object/pistachio/include/arch/syscalls.h
build/pistachio/object/pistachio/include/arch/syscalls.h
build/pistachio/object/pistachio/include/arch/thread.h
build/pistachio/object/pistachio/include/arch/thread.h
build/pistachio/object/pistachio/include/arch/thread.h
build/pistachio/object/pistachio/include/arch/thread.h
build/pistachio/object/pistachio/include/arch/types.h
build/pistachio/object/pistachio/include/asmsyms.h
build/pistachio/object/pistachio/include/asmsyms.h
build/pistachio/object/pistachio/include/asmsyms.h
build/pistachio/object/pistachio/include/asmsyms.h
build/pistachio/object/pistachio/include/context_layout.h
build/pistachio/object/pistachio/include/context_layout.h
build/pistachio/object/pistachio/include/context_layout.h
build/pistachio/object/pistachio/include/ktcb_layout.h
build/pistachio/object/pistachio/include/ktcb_layout.h
build/pistachio/object/pistachio/include/tcb_layout.h
build/pistachio/object/pistachio/include/tcb_layout.h
build/pistachio/object/pistachio/include/tcb_layout.h
build/pistachio/object/pistachio/include/tcb_layout.h
c_schedule
cache.cc
caps.cc
check_async_ipc
check_async_ipc
check_async_irq
check_breakin.cc
check_coproc_fault
check_other_syscalls
clist.cc
clist.cc
clist_lookup
cmd.cc
config
console.cc
console.cc
copy_loop
cust/qct/arch/arm/pistachio/src/notify.spp
cust/qct/arch/arm/pistachio/src/notify.spp
cust/qct/arch/arm/pistachio/src/notify.spp
cust/qct/arch/arm/pistachio/src/notify.spp
cust/qct/arch/arm/pistachio/src/notify.spp
cust/qct/arch/arm/pistachio/src/notify.spp
cust/qct/arch/arm/pistachio/src/notify.spp
cust/qct/arch/arm/pistachio/src/notify.spp
cust/qct/arch/arm/pistachio/src/notify.spp
cust/qct/arch/arm/pistachio/v5/src/post_syscall.spp
cust/qct/arch/arm/pistachio/v5/src/post_syscall.spp
cust/qct/arch/arm/pistachio/v5/src/post_syscall.spp
cust/qct/arch/arm/pistachio/v5/src/post_syscall.spp
cust/qct/arch/arm/pistachio/v5/src/post_syscall.spp
cust/qct/arch/arm/pistachio/v5/src/post_syscall.spp
cust/qct/arch/arm/pistachio/v5/src/post_syscall.spp
cust/qct/arch/arm/pistachio/v5/src/post_syscall.spp
cust/qct/arch/arm/pistachio/v5/src/post_syscall.spp
cust/qct/arch/arm/pistachio/v5/src/post_syscall.spp
cust/qct/arch/arm/pistachio/v5/src/post_syscall.spp
cust/qct/arch/arm/pistachio/v5/src/post_syscall.spp
cust/qct/arch/arm/pistachio/v5/src/post_syscall.spp
cust/qct/arch/arm/pistachio/v5/src/thread_start.spp
cust/qct/arch/arm/pistachio/v5/src/thread_start.spp
cust/qct/arch/arm/pistachio/v5/src/thread_start.spp
cust/qct/arch/arm/pistachio/v5/src/thread_start.spp
cust/qct/arch/arm/pistachio/v5/src/thread_start.spp
cust/qct/arch/arm/pistachio/v5/src/thread_start.spp
cust/qct/arch/arm/pistachio/v5/src/thread_start.spp
cust/qct/arch/arm/pistachio/v5/src/thread_start.spp
cust/qct/arch/arm/pistachio/v5/src/thread_start.spp
cust/qct/arch/arm/pistachio/v5/src/traps.spp
cust/qct/arch/arm/pistachio/v5/src/traps.spp
cust/qct/arch/arm/pistachio/v5/src/traps.spp
cust/qct/arch/arm/pistachio/v5/src/traps.spp
cust/qct/arch/arm/pistachio/v5/src/traps.spp
cust/qct/arch/arm/pistachio/v5/src/traps.spp
cust/qct/arch/arm/pistachio/v5/src/traps.spp
cust/qct/arch/arm/pistachio/v5/src/traps.spp
cust/qct/arch/arm/pistachio/v5/src/traps.spp
cust/qct/arch/arm/pistachio/v5/src/traps.spp
cust/qct/arch/arm/pistachio/v5/src/traps.spp
cust/qct/arch/arm/pistachio/v5/src/traps.spp
cust/qct/arch/arm/pistachio/v5/src/traps.spp
cust/qct/arch/arm/pistachio/v5/src/traps.spp
cust/qct/arch/arm/pistachio/v5/src/traps.spp
cust/qct/pistachio/include/l4.h
cust/qct/pistachio/include/l4.h
cust/qct/pistachio/include/l4.h
cust/qct/pistachio/include/l4.h
cust/qct/pistachio/include/l4.h
cust/qct/pistachio/include/l4.h
cust/qct/pistachio/include/l4.h
cust/qct/pistachio/include/l4.h
cust/qct/pistachio/include/l4.h
cust/qct/pistachio/include/l4.h
cust/qct/pistachio/include/l4.h
cust/qct/pistachio/include/l4.h
cust/qct/pistachio/include/l4.h
cust/qct/pistachio/include/l4.h
cust/qct/pistachio/include/l4.h
cust/qct/pistachio/include/l4.h
cust/qct/platform/versatile/pistachio/src/head.spp
cust/qct/platform/versatile/pistachio/src/head.spp
cust/qct/platform/versatile/pistachio/src/head.spp
cust/qct/platform/versatile/pistachio/src/head.spp
data.cc
debug.cc
debug.cc
decode_reply_cap
do_checkfiq
do_excep_trace
do_ipc_copy
do_ipc_trace
do_undefined
done
done_mutex_loop
end_excep_trace
end_ipc_trace
endpoint.cc
enter_kdebug
enter_kdebug_c
entry.cc
exception.cc
exception.cc
exception_do_ipc
exception_fastpath_recover
exception_slowpath
exregs.cc
fass.cc
fast_path_recover
fast_path_switch_to
fast_reply_exception
fastpath.cc
finish_send
fiq_vec
frame.cc
free_tcb_idx
generic_execution_units
generic_irq
get_again
global_mutexes_list
global_present_list
global_spaces_list
handle_interrupt
hw_pgshifts
init.cc
init.cc
init.cc
init_arm_globals
init_memory
init_struct
initial_to_user
input.cc
input_api.cc
intctrl.cc
interrupt.cc
interrupt.cc
ipc.cc
ipc_complete_switch_to
ipc_complete_switch_to_noex
ipc_fastpath_check_inheritance_call
ipc_fastpath_create_dependency
ipc_fastpath_drop_dependency
ipc_fastpath_drop_dependency_after_dequeue
ipc_fastpath_long_dequeue_queue_item
ipc_fastpath_post_create_dependency
ipc_fastpath_post_drop_dependency
ipc_return_user
ipc_slowpath
ipc_syscall_return
kdb
kdb_initfuncs
kdb_last_dump
kdb_tid_format
kdebug_entries
kernel_access
kernel_interrupt
kernel_version_string
kmem
kmem_clist
kmem_clistids
kmem_ll
kmem_misc
kmem_mutex
kmem_mutexids
kmem_pgtab
kmem_root_clist
kmem_space
kmem_spaceids
kmem_stack
kmem_tcb
kmem_trace
kmem_utcb
kmemory.cc
kmemory.cc
l0_allocator
l1_allocator
l2cache.cc
lib.cc
libgcc2.c
libgcc2.c
libgcc2.c
libgcc2.c
linear_ptab_dump.cc
linear_ptab_walker.cc
linear_ptab_walker.cc
macro_set.cc
macro_sets.cc
map.cc
memcpy
memcpy_buf
memdump.cc
memdump_wordsize
memset
mp
mutex.cc
mutex.cc
mutex_list_lock
mutex_loop_start
mutex_pool
mutexid_table
names.cc
no_syscall_except_ipc_copy
non_blocking
normal_ipc_copy_mrs
normal_irq
num_chunks
num_tcbs
panic.cc
plat.cc
platform.cc
platform_impl.cc
platform_support.cc
platsupport.cc
prepost.cc
present_list_lock
print.cc
printf
prioqueue.cc
profile.cc
profiling.cc
reboot.cc
reboot.cc
reg.cc
remote_memcpy.cc
reset_exception
resources.cc
resources.cc
retry_send
roinit.cc
root
root_clist
roottask_space
schedule.cc
schedule.cc
scheduler_ptr
security.cc
send_exception_ipc
show_processor_info
slow_excep_trace
slow_ipc_trace
smallalloc.cc
smp.cc
space.cc
space.cc
space.cc
space.cc
space_lookup
space_pool
space_switch.cc
spaces_list_lock
stack_top
start_post_syscall_callback
startup_system_mmu
statistics
strcpy
string.cc
syncpoint.cc
sys_arm_misc
sys_cache_control
sys_cap_control
sys_exchange_registers
sys_exchange_registers_exargs
sys_interrupt_control
sys_ipc
sys_map_control
sys_memory_copy
sys_mutex
sys_mutex_control
sys_platform_control
sys_schedule
sys_schedule_exargs
sys_security_control
sys_space_control
sys_space_control_exargs
sys_space_switch
sys_thread_control
sys_thread_control_exargs
sys_thread_switch
syscall_return
tb_irq
tb_irq_masked
tb_irq_pending
tcb.cc
tcb_array
tcb_size
thread.cc
thread.cc
thread.cc
thread.cc
tid_format.cc
time_ptr
timer.cc
timer_tick_length
tlb.cc
tmp_r14
tmp_spsr
to_tcb_decoded
tp_list
trace_buffer
trace_lock
trace_names
tracebuf
tracebuffer.cc
tracebuffer.cc
traceids.cc
tracepoint_set
tracepoints
tracepoints.cc
undefined_exception
user_do_interrupt
vector_arm_abort_return
vector_arm_common_return
vector_arm_data_abort_exception
vector_arm_fiq_exception
vector_arm_high_vector
vector_arm_irq_exception
vector_arm_misc_syscall
vector_arm_prefetch_abort_exception
vector_arm_reset_exception
vector_arm_swi_exception
vector_arm_swi_syscall
vector_arm_undefined_inst_exception
vector_ipc_syscall_return
vector_kernel_access
vector_scheduler_ptr
vector_stack_top
vector_sys_exchange_registers_exargs
vector_sys_schedule_exargs
vector_sys_space_control_exargs
vector_sys_thread_control_exargs
vector_syscall_return
vector_time_ptr
vector_tmp_r14
vector_tmp_spsr
vfp.cc
