

Name
_ZN11QTextStreamC2ERK10QByteArray6QFlagsIN9QIODevice12OpenModeFlagEE
_ZN4QDirC1ERK7QString
_ZN8QProcess16waitForReadyReadEi
_ZNK7QObject6threadEv
_ZN14QTemporaryFileC1ERK7QStringP7QObject
_ZNK6QRectF13toAlignedRectEv
_ZN18QAbstractListModelC1ER25QAbstractItemModelPrivateP7QObject
_ZNK5QChar14combiningClassEv
_ZN8QVariantC1ERK5QDate
_ZN5QChar11toTitleCaseEj
_ZNK7QString8toDoubleEPb
_ZN14QTemporaryFileD1Ev
_ZN9QtPrivate28QStringList_replaceInStringsEP11QStringListRK7QRegExpRK7QString
_ZNK9QMimeData4urlsEv
_ZN7QRegExpD1Ev
_ZN23QCoreApplicationPrivate17removePostedEventEP6QEvent
_ZNK18QAbstractListModel11hasChildrenERK11QModelIndex
_ZN9QResource18unregisterResourceERK7QStringS2_
_ZN16QCoreApplication11qt_metacallEN11QMetaObject4CallEiPPv
_ZN10QSemaphore10tryAcquireEii
pthread_mutex_unlock
_ZN5QDate17gregorianToJulianEiii
_ZN9QSettings14setUserIniPathERK7QString
_ZN5QFile4openEi6QFlagsIN9QIODevice12OpenModeFlagEE
_ZNK5QUuid8toStringEv
_Z19qcoreVariantHandlerv
_ZN14QFactoryLoaderC1EPKcRK11QStringListRK7QStringN2Qt15CaseSensitivityE
_ZNK13QMetaProperty5resetEP7QObject
_ZNK7QString5splitERK5QCharNS_13SplitBehaviorEN2Qt15CaseSensitivityE
_ZNK9QMimeData4htmlEv
_ZN9QHashData13detach_helperEPFvPNS_4NodeEPvEi
pthread_attr_setdetachstate
_ZN11QTimerEventD1Ev
_ZNK7QObject8userDataEj
_ZNK8QVariant5toIntEPb
_ZN14QTemporaryFileC1Ev
_ZN4QDirC1ERK7QStringS2_6QFlagsINS_8SortFlagEES3_INS_6FilterEE
_ZTV15QObjectUserData
_ZN7QRegExpC1Ev
_ZNK23QCoreApplicationPrivate7appNameEv
_ZN20QEventDispatcherGlib11qt_metacastEPKc
unlink
_ZTI11QChildEvent
_Z5fixedR11QTextStream
_ZNK7QBuffer3posEv
_ZN9QIODevice8readLineEx
_ZN15QSocketNotifier5eventEP6QEvent
_ZN7QObject18staticQtMetaObjectE
_ZN10QSemaphore10tryAcquireEi
_ZN7QString6appendE5QChar
_ZNK15QDateTimeParser10sectionPosERKNS_11SectionNodeE
feof
_ZN19QAbstractTableModel16staticMetaObjectE
_ZN10QByteArray10fromBase64ERKS_
_ZlsR11QDataStreamRK5QDate
_ZN19QAbstractFileEngine8setErrorEN5QFile9FileErrorERK7QString
_ZN7QThread15currentThreadIdEv
_ZN11QTextStream13flagsInternalEi
_ZN9QTimeLine11setEndFrameEi
_ZN6QMutexD2Ev
_ZTV25QAbstractItemModelPrivate
_ZTV8QLibrary
_ZN7QThread4quitEv
dlsym
rand_r
qt_startup_hook
_ZN18QAbstractItemModel23columnsAboutToBeRemovedERK11QModelIndexii
_ZNK7QLocale14groupSeparatorEv
_ZN9QDateTimeaSERKS_
_ZNK14QLocalePrivate19unsLongLongToStringEyiiij
_ZTI27QEventDispatcherUNIXPrivate
_ZNK11QTranslator10metaObjectEv
sigaction
_ZNK9QFileInfo3dirEv
_Jv_RegisterClasses
_ZN7QLocaleC1ERKS_
_ZN5QFile6removeEv
_ZN8QLibrary7resolveEPKc
_ZNK6QRectF8containsERKS_
_ZN7QString16fromAscii_helperEPKci
_ZN5QFileC2ERK7QString
_ZNK5QUuidltERKS_
_ZNK27QAbstractFileEngineIterator15currentFileInfoEv
g_source_destroy
_Zls6QDebugRK7QPointF
_ZNK9QIODevice6statusEv
_ZNK19QAbstractFileEngine8fileNameENS_8FileNameE
pthread_setspecific
_ZN10QEventLoop16staticMetaObjectE
_ZN9QTimeLine12setLoopCountEi
_ZN4QUrlC2Ev
_ZNK14QTemporaryFile8fileNameEv
_ZNK9QFileInfo8isBundleEv
_ZN12QTextEncoderD1Ev
_ZN18QAbstractItemModel16endRemoveColumnsEv
_Z5qrandv
_ZNK19QAbstractFileEngine5ownerENS_9FileOwnerE
_ZN11QDataStreamC1EP9QIODevice
_ZN8QVariant6detachEv
_ZN9QMimeData5clearEv
_ZN9QIODeviceC2EP7QObject
fwrite
_ZrsR11QDataStreamR5QLine
_ZN18QAbstractItemModelC2EP7QObject
_ZN18QCryptographicHash7addDataERK10QByteArray
_ZN7QBuffer4seekEx
_ZTV14QTemporaryFile
_ZN4QUrlD2Ev
_ZNK27QAbstractFileEngineIterator11nameFiltersEv
_ZNK9QMetaEnum5valueEi
_ZN18QFileSystemWatcher10removePathERK7QString
_ZNK4QUrl8fileNameEv
_ZNK9QFileInfo8fileNameEv
_ZN16QCoreApplication12setAttributeEN2Qt20ApplicationAttributeEb
_ZN16QCoreApplication17installTranslatorEP11QTranslator
_ZN18QAbstractItemModel10insertRowsEiiRK11QModelIndex
_ZN9QMimeDataD2Ev
_ZN8QProcess16closeReadChannelENS_14ProcessChannelE
_ZTV14QMetaCallEvent
_ZN10QByteArrayaSERKS_
_ZNK18QAbstractItemModel5matchERK11QModelIndexiRK8QVarianti6QFlagsIN2Qt9MatchFlagEE
_ZNK14QFactoryLoader10metaObjectEv
_ZN16QCoreApplication11closingDownEv
_ZN5QFile8readDataEPcx
_Z3hexR11QTextStream
_ZN5QFileC1ERK7QStringP7QObject
_ZN11QMetaObject11removeGuardEPP7QObject
__divdi3
_ZN18QFileSystemWatcher16directoryChangedERK7QString
_ZN20QEventDispatcherUNIX23activateSocketNotifiersEv
_ZN7QString7sprintfEPKcz
_end
qt_addObject
_ZN11QTextStreamrsER10QByteArray
_ZN9QMimeDataC2Ev
_ZNK7QLocale8toStringERK5QTimeRK7QString
_ZN7QString11fromRawDataEPK5QChari
_ZN9QDateTime10fromStringERK7QStringS2_
_ZN18QFileSystemWatcherC2ERK11QStringListP7QObject
_ZN11QTextStream5flushEv
_ZN18QAbstractItemModel13removeColumnsEiiRK11QModelIndex
_ZNK15QDateTimeParser9findMonthERK7QStringiiPS0_Pi
_ZNK8QLibrary10metaObjectEv
_ZNK14QObjectPrivate10senderListEv
_ZN9QSettings16staticMetaObjectE
_ZNK7QRegExp11numCapturesEv
_ZNK7QLocale4nameEv
_ZNK4QUrl11toLocalFileEv
_ZN7QObjectD0Ev
_ZN4QUrl12addQueryItemERK7QStringS2_
_ZN9QtPrivate18QStringList_filterEPK11QStringListRK7QStringN2Qt15CaseSensitivityE
_ZNK10QByteArray11lastIndexOfERKS_i
_ZN14QObjectPrivate20setThreadData_helperEP11QThreadDataS1_
_ZrsR11QDataStreamR6QLineF
_ZN14QTemporaryFile11qt_metacallEN11QMetaObject4CallEiPPv
_ZTI5QFile
_ZN20QEventDispatcherGlibC1EP13_GMainContextP7QObject
_ZNK7QThread9stackSizeEv
_ZN8QVariantC1ERK7QRegExp
_ZN8QProcess16staticMetaObjectE
_ZTS11QTranslator
backtrace
_ZN20QEventDispatcherGlib11qt_metacallEN11QMetaObject4CallEiPPv
perror
_ZNK8QVariant5toMapEv
_ZN11QTranslatorD1Ev
_ZNK5QRect8containsERK6QPointb
_ZN5QTime7isValidEiiii
_ZN9QInternal18unregisterCallbackENS_8CallbackEPFbPPvE
_ZTI16QIODevicePrivate
_ZN12QDirIteratorC1ERK7QStringRK11QStringList6QFlagsIN4QDir6FilterEES6_INS_12IteratorFlagEE
_ZNK15QDateTimeParser10sectionPosEi
_ZN8QMapData11node_createEPPNS_4NodeEi
_ZNK7QRegExp15caseSensitivityEv
_ZN23QCoreApplicationPrivateD0Ev
g_main_context_iteration
_ZN19QAbstractFileEngine8readLineEPcx
_ZNK11QMetaMethod3tagEv
_ZNK11QTextStream7padCharEv
_ZN16QCoreApplication14addLibraryPathERK7QString
_ZN14QStringMatcherD1Ev
_ZNK9QFileInfo13canonicalPathEv
_ZN7QString8fromUcs4EPKji
_ZN8QProcess5startERK7QString6QFlagsIN9QIODevice12OpenModeFlagEE
_ZN9QFileInfoaSERKS_
_ZNK9QFileInfo3dirEb
g_source_set_can_recurse
_ZNK9QTimeLine10metaObjectEv
_ZNK13QFSFileEngine14isRelativePathEv
_ZN11QMetaObject8activateEP7QObjectPKS_iiPPv
_ZN9QHashData8nextNodeEPNS_4NodeE
_Z15qInitResourceIOv
_ZNK9QFileInfo10permissionE6QFlagsIN5QFile10PermissionEE
_ZN14QTemporaryFile15createLocalFileER5QFile
_ZN16QCoreApplication16staticMetaObjectE
_ZN20QEventDispatcherGlib16versionSupportedEv
__environ
_ZN9QSettings11qt_metacallEN11QMetaObject4CallEiPPv
_ZN10QTextCodec14codecForLocaleEv
pthread_getschedparam
_ZN4QDir6renameERK7QStringS2_
_ZN13QFSFileEngine6drivesEv
_ZN14QStringMatcherC1Ev
_ZN4QUrlC1ERKS_
_ZN9QHashData14destroyAndFreeEv
_ZTI17QFactoryInterface
_ZN20QEventDispatcherUNIX6selectEiP6fd_setS1_S1_P7timeval
_ZNK9QFileInfo6suffixEv
_ZN9QFileInfoeqERKS_
_ZNK9QTimeLine14updateIntervalEv
_ZN25QAbstractItemModelPrivate16staticEmptyModelEv
_ZN10QSemaphoreD2Ev
_ZN16QCoreApplication13processEventsE6QFlagsIN10QEventLoop17ProcessEventsFlagEEi
_ZNK5QChar7isPunctEv
_ZN18QCryptographicHashC2ENS_9AlgorithmE
_ZTS14QObjectPrivate
_ZN16QTextCodecPlugin11qt_metacallEN11QMetaObject4CallEiPPv
_ZNK9QResource4dataEv
_ZN16QCoreApplication9postEventEP7QObjectP6QEventi
_ZN9QIODevice8readLineEPcx
_ZN8QVariantC1ERK11QStringList
_ZN9QIODeviceC1ER16QIODevicePrivateP7QObject
_ZN18QCryptographicHashC1ENS_9AlgorithmE
_ZNK18QAbstractItemModel19persistentIndexListEv
_ZN7QObject11qt_metacastEPKc
_ZTV11QDataStream
_ZN10QMutexPool17globalInstanceGetEPKv
_ZNK6QRectF10normalizedEv
_ZTS16QTextCodecPlugin
_ZN8QLibraryD0Ev
_ZNK8QLibrary8isLoadedEv
_ZN9QSettings19setFallbacksEnabledEb
_ZN8QVariantC1ERKS_
_ZNK11QTextStream17autoDetectUnicodeEv
_Zls6QDebugRK6QLineF
_ZN16QCoreApplicationD1Ev
_ZN15QObjectUserDataD2Ev
_ZN13QFSFileEngine4openE6QFlagsIN9QIODevice12OpenModeFlagEEi
_ZTI10QEventLoop
pthread_getspecific
_ZN9QMimeData7setHtmlERK7QString
_ZN14QObjectPrivate19moveToThread_helperEv
readdir_r
_ZN10QSemaphoreC2Ei
_ZN18QAbstractItemModel5resetEv
_ZN18QFileSystemWatcherC1ERK11QStringListP7QObject
_ZThn8_N16QTextCodecPluginD0Ev
_ZNK6QLineF10unitVectorEv
_ZNK8QVariant11toByteArrayEv
_ZNK18QAbstractListModel11columnCountERK11QModelIndex
_ZNK7QBuffer4dataEv
_ZTI13QFSFileEngine
_ZNK7QString11lastIndexOfERKS_iN2Qt15CaseSensitivityE
_ZTV20QEventDispatcherGlib
_ZN7QLocale15countryToStringENS_7CountryE
_ZN4QUrl19removeAllQueryItemsERK7QString
_Zls6QDebugRK11QModelIndex
_ZNK7QString3argERKS_iRK5QChar
_ZN27QEventDispatcherUNIXPrivateC1Ev
qMetaTypeGuiHelper
_ZN14QStringMatcherC2ERKS_
_ZNK21QPersistentModelIndex5flagsEv
_ZN11QTranslatorC2EP7QObject
_ZN16QSegfaultHandler8callbackE
g_thread_init
_ZN18QAbstractItemModel15beginInsertRowsERK11QModelIndexii
_ZN5QFile4openE6QFlagsIN9QIODevice12OpenModeFlagEE
_ZN13QSystemLocaleD1Ev
pthread_cond_init
_ZN4QDir2cdERK7QString
pthread_mutex_destroy
_ZN4QUrl5toAceERK7QString
_ZNK7QString13leftJustifiedEi5QCharb
_ZN21QObjectCleanupHandlerD1Ev
_ZNK13QSignalMapper10metaObjectEv
g_threads_got_initialized
pthread_cancel
_ZTV11QTranslator
_ZN27QEventDispatcherUNIXPrivateD1Ev
_ZNK11QMetaObject13indexOfSignalEPKc
_ZN19QAbstractFileEngine6createERK7QString
_ZNK9QDateTimeltERKS_
_ZN10QByteArray7replaceEcc
iconv
_ZN18QAbstractItemModelD0Ev
_ZN9QIODevice16staticMetaObjectE
_ZN4QDir21nameFiltersFromStringERK7QString
_ZN13QSystemLocaleC1Ev
_ZN21QObjectCleanupHandlerC1Ev
_ZTS13QPluginLoader
_ZTI26QTextCodecFactoryInterface
_ZN20QEventDispatcherGlib24unregisterSocketNotifierEP15QSocketNotifier
_ZN7QObject14dumpObjectTreeEv
_ZN9QBitArrayeOERKS_
_ZN27QAbstractFileEngineIteratorC1E6QFlagsIN4QDir6FilterEERK11QStringList
_Zls6QDebugPK7QObject
fchmod
_ZN12QDirIteratorD1Ev
_ZN14QStringMatcher18setCaseSensitivityEN2Qt15CaseSensitivityE
_ZN11QDataStreamlsEs
_ZN9QBitArray6resizeEi
_ZNK19QAbstractFileEngine5atEndEv
fgetc
_ZN9QTimeLine5startEv
_ZNK10QTextCodec11fromUnicodeERK7QStringRi
_ZN20QEventDispatcherGlibD1Ev
_ZN9QFileInfo7setFileERK7QString
_ZNK5QDate6daysToERKS_
_ZN8QProcess20setStandardErrorFileERK7QString6QFlagsIN9QIODevice12OpenModeFlagEE
_ZNK5QFile8readLinkEv
_ZN11QDataStreamlsEx
_ZNK7QRegExp7patternEv
_ZTI15QObjectUserData
_ZN27QAbstractFileEngineIteratorC2E6QFlagsIN4QDir6FilterEERK11QStringList
__umoddi3
_ZN11QTextStream17setFieldAlignmentENS_14FieldAlignmentE
_ZN11QTimerEventC2Ei
_ZN8QProcessD2Ev
_ZN4QUrlC1ERK7QStringNS_11ParsingModeE
_ZNK5QFile10metaObjectEv
_ZN23QCoreApplicationPrivate7attribsE
_ZlsR11QDataStreamRK6QSizeF
_ZN14QWaitCondition7wakeAllEv
_fini
_ZNK7QString7compareERKS_
_ZNK21QObjectCleanupHandler7isEmptyEv
_ZN13QSignalMapper11qt_metacastEPKc
_ZNK5QDate3dayEv
_ZN20QEventDispatcherUNIXD0Ev
_ZN4QUrl17toPercentEncodingERK7QStringRK10QByteArrayS5_
qt_removeObject
fgets
_ZN9QDateTime7setDateERK5QDate
_ZNK13QMetaProperty10isEnumTypeEv
_ZN7QRegExpC2ERK7QStringN2Qt15CaseSensitivityENS_13PatternSyntaxE
_ZNK9QTimeLine12currentValueEv
_ZNK9QMimeData10metaObjectEv
_ZN11QDataStreamC2EP10QByteArray6QFlagsIN9QIODevice12OpenModeFlagEE
_ZNK4QDir13entryInfoListE6QFlagsINS_6FilterEES0_INS_8SortFlagEE
_ZN12QTextDecoderD2Ev
_ZN13QFSFileEngine6removeEv
_ZTV13QFontLaoCodec
_ZN9QSettingsC1ENS_6FormatENS_5ScopeERK7QStringS4_P7QObject
_ZN9QConfFile8fromNameERK7QStringb
_ZN21QObjectCleanupHandler5clearEv
_ZNK7QString7indexOfERK7QRegExpi
_ZN11QThreadData4get2EP7QThread
_ZN14QFactoryLoaderD1Ev
_ZN7QStringC2EPK5QChari
_Z9qt_assertPKcS0_i
_ZN10QSemaphore7releaseEi
_ZN5QFileC2EP7QObject
_ZNK9QSettings8fileNameEv
_ZN5QFileD2Ev
_ZTS18QAbstractItemModel
_ZNK18QThreadStorageData3getEv
_ZNK4QDir6isRootEv
_ZN9QResourceD2Ev
_ZN14QWaitCondition7wakeOneEv
_ZNK15QDateTimeParser10fromStringERK7QStringP5QDateP5QTime
_ZNK11QTextStream21generateByteOrderMarkEv
_ZN9QDateTimeC2Ev
_ZNK8QProcess10exitStatusEv
_ZN11QThreadData3refEv
dlclose
_ZN5QFileC2Ev
_ZN16QCoreApplication4selfE
_ZN10QEventLoop13processEventsE6QFlagsINS_17ProcessEventsFlagEEi
_ZTV13QPluginLoader
_ZN20QEventDispatcherGlib13registerTimerEiiP7QObject
g_source_attach
_ZN11QDataStreamlsEa
_ZNK9QBitArray5countEb
_ZN11QDataStreamlsEb
_ZN9QDateTimeD2Ev
_ZN11QDataStreamlsEd
_ZN11QDataStreamlsEf
_ZNK4QDir4pathEv
_ZNK18QAbstractItemModel8itemDataERK11QModelIndex
chdir
_ZN11QDataStreamlsEi
_ZN10QByteArrayaSEPKc
_ZN21QObjectCleanupHandler15objectDestroyedEP7QObject
_ZN7QString10fromLatin1EPKci
_ZTS13QFontLaoCodec
_ZN18QAbstractItemModel19modelAboutToBeResetEv
_ZNK4QDir7refreshEv
_ZNK9QMetaEnum10valueToKeyEi
_ZN16QCoreApplication17removeLibraryPathERK7QString
_Z11qUncompressPKhi
_ZNK11QMetaObject6trUtf8EPKcS1_
_ZNK15QDateTimeParser8findAmPmER7QStringiPi
_ZTS11QDataStream
_ZNK7QString7toUpperEv
_Zls6QDebug6QFlagsIN9QIODevice12OpenModeFlagEE
_ZN8QProcess11qt_metacastEPKc
_Z37qRegisterStaticPluginInstanceFunctionPFP7QObjectvE
g_source_remove_poll
_ZNK9QFileInfo6existsEv
_ZNK5QUuid6isNullEv
_ZTV18QFileSystemWatcher
_ZNK8QProcess8exitCodeEv
_ZNK8QVariant12toStringListEv
_ZN5QFile4copyERK7QString
_ZNK12QDirIterator8fileInfoEv
_Zls6QDebugRK5QSize
_ZNK9QResource4sizeEv
_ZNK8QVariant5toUrlEv
_ZN11QDataStreamC1EP10QByteArray6QFlagsIN9QIODevice12OpenModeFlagEE
_ZN14QTemporaryFileD2Ev
_Z24qInstallPathTranslationsv
_ZNK15QDateTimeParser17checkIntermediateERK9QDateTimeRK7QString
_ZN4QUrl15removeQueryItemERK7QString
_ZN8QVariantC2ERK7QString
_ZN9QSettings4syncEv
_ZNK7QBuffer5atEndEv
_Z9forcesignR11QTextStream
_ZN9QSettingsC2ENS_5ScopeERK7QStringS3_P7QObject
_ZN8QVariantC1ERK7QLocale
_ZN7QString7replaceE5QCharRKS_N2Qt15CaseSensitivityE
_ZN7QThread11qt_metacastEPKc
_ZN11QTimerEventD2Ev
_ZN7QBuffer5closeEv
_ZN14QTemporaryFileC2Ev
_ZTI19QAbstractFileEngine
_ZNK9QDateTime8toTime_tEv
_ZN9QSettingsC1ENS_5ScopeERK7QStringS3_P7QObject
_ZN8QLibrary21setFileNameAndVersionERK7QStringi
_ZN4QUrl10toPunycodeERK7QString
_ZN4QDir5matchERK7QStringS2_
_ZNK9QMimeData8hasColorEv
_ZN9QTimeLine11setDurationEi
_ZNK16QTextCodecPlugin10metaObjectEv
_ZNK19QAbstractFileEngine14isRelativePathEv
_ZN16QCoreApplication14setEventFilterEPFbPvPlE
_ZN7QString17fromLatin1_helperEPKci
_ZNK5QChar7isDigitEv
_ZN14QWaitConditionD1Ev
_ZN12QSockNotTypeD2Ev
_ZN14QObjectPrivate30sendPendingChildInsertedEventsEv
_ZNK14QLocalePrivate15numberToCLocaleERK7QStringNS_18GroupSeparatorModeEP15QVarLengthArrayIcLi256EE
_ZN10QByteArrayC2EPKc
_ZN10QByteArray8truncateEi
_ZlsR11QDataStreamRK10QByteArray
_ZN16QCoreApplication4argvEv
_ZN9QFileInfoC2ERK5QFile
_ZN10QByteArray6numberEii
_ZN8QVariantC2ERK4QMapI7QStringS_E
_ZNK13QMetaProperty12hasStdCppSetEv
_ZNK9QFileInfo12absolutePathEv
_ZN7QString6resizeEi
_ZN25QAbstractItemModelPrivate24columnsAboutToBeInsertedERK11QModelIndexii
_ZNK19QAbstractFileEngine7ownerIdENS_9FileOwnerE
_ZN11QDataStream11unsetDeviceEv
_ZN14QWaitConditionC1Ev
_ZN12QSockNotTypeC2Ev
_ZNK4QUrl7dirPathEv
_ZN10QByteArrayC2Eic
_ZN7QRegExp10setPatternERK7QString
_ZNK9QFileInfo6isRootEv
qt_disable_lowpriority_timers
_ZN20QEventDispatcherGlib6wakeUpEv
_ZNK7QString7sectionERK7QRegExpii6QFlagsINS_11SectionFlagEE
_ZN10QTextCodec12codecForNameERK10QByteArray
_ZN9QFileInfoC1ERK5QFile
_ZN11QTextStreamlsE5QChar
__pthread_register_cancel
_ZNK7QString6toLongEPbi
gmtime_r
_ZNK9QFileInfo8readLinkEv
_ZN24QAbstractEventDispatcherD2Ev
_ZTV27QAbstractFileEngineIterator
_ZNK4QDir16absoluteFilePathERK7QString
_ZN12QTextEncoderD2Ev
_ZN7QObjectC2ER14QObjectPrivatePS_
_ZN8QVariantC2ENS_4TypeE
_ZN7QThread21setTerminationEnabledEb
_ZNK9QIODevice14bytesAvailableEv
_ZNK7QString12ascii_helperEv
_ZNK9QSettings6statusEv
_ZN23QCoreApplicationPrivate14is_app_closingE
_ZN20QEventDispatcherGlib16staticMetaObjectE
_ZN14QObjectPrivate11clearGuardsEP7QObject
_ZN14QUnicodeTables14lineBreakClassEj
dlopen
_ZNK7QLocale8toDoubleERK7QStringPb
_ZrsR11QDataStreamR6QPoint
_ZTI13QSystemLocale
_ZNK8QVariant8toStringEv
_ZN8QProcess8finishedEi
_ZN7QString7replaceERK7QRegExpRKS_
_ZN9QMetaType12isRegisteredEi
_ZTV9QMimeData
_ZN11QChildEventD2Ev
_ZTV11QTextStream
_ZN6QTimer5startEib
_ZN4QUrlaSERK7QString
_ZNK7QString7toLowerEv
_ZN10QByteArrayC1Eic
_ZN16QCoreApplication12libraryPathsEv
_ZN9QListData7detach2Ev
_ZNK7QThread10metaObjectEv
_ZN7QObject11eventFilterEPS_P6QEvent
readlink
_ZNK5QRect8containsERKS_b
_ZNK5QChar11hasMirroredEv
_Z10qvsnprintfPcjPKcS_
_ZN5QFile19setEncodingFunctionEPF10QByteArrayRK7QStringE
_ZN17QByteArrayMatcherC1ERKS_
_ZN4QDir14setSearchPathsERK7QStringRK11QStringList
_ZNK11QTextStream11integerBaseEv
_ZN7QObjectC1ER14QObjectPrivatePS_
_ZNK4QUrl8fragmentEv
_ZNK14QFactoryLoader4keysEv
_ZN16QCoreApplication11qt_metacastEPKc
_ZN7QLocale10setDefaultERKS_
_ZN8QVariantC2ER11QDataStream
_Z7qstrcpyPcPKc
_ZN9QListData6appendERKS_
_ZNK7QString10normalizedENS_17NormalizationFormE
_ZNK8QVariant3cmpERKS_
_ZN9QtPrivate28QStringList_replaceInStringsEP11QStringListRK7QStringS4_N2Qt15CaseSensitivityE
_ZN16QTextCodecPluginC2EP7QObject
_ZN9QSettings6removeERK7QString
mktime
_ZN14QObjectPrivateC1Ei
_ZN6QTimer7timeoutEv
_ZN8QVariantC1ERK6QSizeF
_ZN8QProcess21readAllStandardOutputEv
_ZTI11QDataStream
_ZNK9QFileInfo10isRelativeEv
_ZN21QPersistentModelIndexC2Ev
pathconf
_ZlsR11QDataStreamRK6QPoint
_ZNK11QTextStream6deviceEv
_ZN13QFSFileEngineC2ER20QFSFileEnginePrivate
_ZanRK9QBitArrayS1_
_ZN8QVariant5clearEv
_ZN5QFileC1ER12QFilePrivateP7QObject
_ZNK9QMetaEnum8keyCountEv
_ZNK15QDateTimeParser13sectionFormatEi
_ZNK9QFileInfo10isWritableEv
_ZN21QPersistentModelIndexD2Ev
_ZTS20QEventDispatcherUNIX
_ZN9QMimeData12setImageDataERK8QVariant
_ZNK19QAbstractFileEngine5errorEv
_ZN7QRegExp3capEi
_ZN4QDir6drivesEv
_ZN4QUrlC2ERK7QStringNS_11ParsingModeE
_ZN9QListData5eraseEPPv
_ZN5QFile10decodeNameERK10QByteArray
_ZN23QCoreApplicationPrivateD1Ev
_ZNK11QMetaObject14propertyOffsetEv
_ZN9QTimeLine12setDirectionENS_9DirectionE
_ZNK9QFileInfo4sizeEv
_ZTS18QAbstractListModel
__stack_chk_fail
_ZN10QByteArray6numberEji
_ZNK9QFileInfoeqERKS_
_ZNK4QUrl8userInfoEv
_ZTS19QAbstractFileEngine
_ZN8QVariantC1ER11QDataStream
_ZN8QVariantC1ERK5QListIS_E
_ZNK7QLocale5toIntERK7QStringPbi
_ZN12QDirIteratorC2ERK4QDir6QFlagsINS_12IteratorFlagEE
_ZN7QThreadC2ER14QThreadPrivateP7QObject
_ZN7QThread11qt_metacallEN11QMetaObject4CallEiPPv
_ZTV13QFSFileEngine
_ZN9QDateTime6detachEv
_ZNK13QPluginLoader11errorStringEv
_ZN15QSocketNotifierC2EiNS_4TypeEP7QObject
dlerror
_ZTS14QFactoryLoader
_ZdlPv
_ZN5QCharC1Ec
realpath
_ZNK19QAbstractFileEngine13caseSensitiveEv
_ZN7QString4growEi
_ZN7QThreadC1ER14QThreadPrivateP7QObject
_ZTS13QFSFileEngine
_ZN14QMetaCallEventC1EiPK7QObjectiPiPPvP10QSemaphore
_ZN19QAbstractFileEngine4readEPcx
_ZN14QLocalePrivate17bytearrayToDoubleEPKcPbS2_
_ZN10QSemaphoreD1Ev
_ZNK4QUrl7isEmptyEv
_ZN5QCharC1Eh
_ZTV16QIODevicePrivate
_ZNK19QAbstractTableModel10metaObjectEv
_ZTV20QEventDispatcherUNIX
_ZN7QString6insertEiRK13QLatin1String
_ZNK11QMetaMethod8typeNameEv
_ZN7QThread4waitEm
_ZN5QChar7joiningEj
_ZN11QDataStreamC2ERK10QByteArray
_ZN12QCustomEventC2EiPv
_ZN7QThread4exitEi
_ZN9QHashData6rehashEi
_ZNK8QVariant6isNullEv
_ZN7QObject11setPropertyEPKcRK8QVariant
_ZN16QCoreApplication19applicationFilePathEv
_ZN9QDateTime10fromTime_tEj
_ZN19QAbstractFileEngineD0Ev
_ZN8QLibraryD1Ev
_ZNK9QDateTime4dateEv
_ZNK8QProcess10metaObjectEv
_ZN7QLocaleC1ENS_8LanguageENS_7CountryE
_ZN11QDataStreamC1ERK10QByteArray
_ZNK10QByteArray11lastIndexOfEci
fesetenv
_ZN9QIODevice11qt_metacallEN11QMetaObject4CallEiPPv
_ZNK11QTextStream5codecEv
_ZNK10QTextCodec11makeDecoderEv
_ZNK21QPersistentModelIndex5childEii
_ZNK9QDateTime6secsToERKS_
_ZN16QCoreApplicationD0Ev
_Z23qt_qFindChildren_helperPK7QObjectRK7QStringPK7QRegExpRK11QMetaObjectP5QListIPvE
_ZN12QDirIteratorC2ERK7QStringRK11QStringList6QFlagsIN4QDir6FilterEES6_INS_12IteratorFlagEE
_ZN14QReadWriteLock14tryLockForReadEi
_ZNK10QByteArray4leftEi
_ZN7QString4fillE5QChari
_ZN9QFileInfo12makeAbsoluteEv
_ZN13QFSFileEngineC2ERK7QString
_ZNK9QIODevice4sizeEv
_ZN10QSemaphoreC1Ei
_ZTS14QMetaCallEvent
_ZN5QChar7toLowerEt
_ZNK7QLocale8toStringEx
_ZN9QHashData8freeNodeEPv
_ZNK7QLocale8toStringEy
_ZNK5QChar8categoryEv
_ZN20QEventDispatcherUNIX13processEventsE6QFlagsIN10QEventLoop17ProcessEventsFlagEE
_ZNK9QMetaEnum6isFlagEv
_ZN14QReadWriteLock14tryLockForReadEv
_ZNK15QDateTimeParser14sectionMaxSizeEi
_ZTI7QObject
_ZN11QTextStream20setAutoDetectUnicodeEb
_Z16qInstallPathLibsv
_ZN11QTextStream21setRealNumberNotationENS_18RealNumberNotationE
_ZN14QStringMatcherC2ERK7QStringN2Qt15CaseSensitivityE
_ZNK9QDateTime4timeEv
_ZN14QObjectPrivate32removePendingChildInsertedEventsEP7QObject
sin
_ZN7QThread11setPriorityENS_8PriorityE
_ZN5QDate6setYMDEiii
_ZN7QObject11deleteLaterEv
_ZN6QEventC1ENS_4TypeE
_ZNK9QDateTime8addYearsEi
_ZN9QFileInfo7refreshEv
_environ
_ZN14QStringMatcherC1ERK7QStringN2Qt15CaseSensitivityE
_ZN5QChar12mirroredCharEt
_ZN9QMimeData11qt_metacallEN11QMetaObject4CallEiPPv
_ZNK9QSettings9childKeysEv
_ZN9QListData11shared_nullE
_ZNK8QVariant10toLongLongEPb
_ZN11QTranslator16staticMetaObjectE
strchr
strrchr
_ZN16QTextCodecPlugin6createERK7QString
_ZN11QDataStreamrsERa
_ZNK7QString3argEciRK5QChar
_ZN8QLibrary11setFileNameERK7QString
write
_ZN11QDataStreamrsERb
_ZN18QAbstractListModelD2Ev
_ZN11QDataStreamrsERd
_ZNK13QMetaProperty6isUserEPK7QObject
_ZNK4QUrl6schemeEv
_ZN12QDirIteratorD0Ev
_ZN16QCoreApplication11filterEventEPvPl
_ZTI18QFileSystemWatcher
_ZTI13QPluginLoader
_ZN11QDataStreamrsERf
_ZN11QDataStreamrsERi
_ZN12QTextEncoder11fromUnicodeEPK5QChari
_ZN11QDataStream9readBytesERPcRj
_ZTS27QEventDispatcherGlibPrivate
_ZNK6QPoint15manhattanLengthEv
_ZN8QVariantC2ERK5QListIS_E
_ZN20QEventDispatcherGlibD0Ev
_ZN13QFSFileEngineC1ER20QFSFileEnginePrivate
_ZNK18QFileSystemWatcher10metaObjectEv
_ZNK13QFSFileEngine7ownerIdEN19QAbstractFileEngine9FileOwnerE
_ZN7QObject16disconnectNotifyEPKc
_ZNK9QMimeData7formatsEv
_ZN11QTranslator4loadEPKhi
_ZN12QCustomEventD2Ev
_ZNK13QSignalMapper7mappingERK7QString
_ZN4QUrl7setHostERK7QString
_ZN13QSignalMapper6mappedEP7QWidget
_ZN5QFile6renameERK7QStringS2_
_ZTV7QBuffer
_ZNK7QString7toAsciiEv
_ZTS20QEventDispatcherGlib
_ZN9QListData4moveEii
_ZN11QDataStreamrsERs
_ZN4QUrl13setEncodedUrlERK10QByteArrayNS_11ParsingModeE
_ZNK4QDir6existsEv
_ZN20QEventDispatcherUNIXD1Ev
_ZN9QIODevice5writeEPKcx
_ZN8QVariantC2ERK4QUrl
_edata
_ZN14QObjectPrivateD1Ev
_ZN5QChar7joiningEt
_ZNK8QVariant11toULongLongEPb
_ZN11QDataStreamrsERx
_ZN8QVariantC1ENS_4TypeE
_ZNK13QFSFileEngine5mkdirERK7QStringb
_ZN7QRegExp16setPatternSyntaxENS_13PatternSyntaxE
_ZN7QRegExpC1ERKS_
_ZNK13QMetaProperty10isReadableEv
_ZTS9QSettings
_ZNK5QTime7elapsedEv
_ZN5QChar10digitValueEt
_ZrsR11QDataStreamR5QChar
_ZN14QReadWriteLock6unlockEv
_ZNK7QString5splitERKS_NS_13SplitBehaviorEN2Qt15CaseSensitivityE
_ZN9QTimeLine11qt_metacastEPKc
_ZNK5QChar16decompositionTagEv
_ZN11QMetaObject10disconnectEPK7QObjectiS2_i
_ZN4QUrl13setEncodedUrlERK10QByteArray
_ZNK13QPluginLoader8fileNameEv
_ZTV19QAbstractFileEngine
_ZN16QCoreApplication9argumentsEv
_ZN9QResourceD1Ev
_ZNK8QVariant9constDataEv
_ZNK4QUrl10isDetachedEv
_ZN10QTextCodec15availableCodecsEv
_ZN5QChar9fromAsciiEc
_ZN9QDateTimeC1Ev
symlink
_ZNK13QPluginLoader10metaObjectEv
_ZN8QVariant7convertENS_4TypeE
_ZNK14QTemporaryFile10autoRemoveEv
_Z18qRemovePostRoutinePFvvE
_ZN6QTimer5startEi
_ZN5QChar12mirroredCharEj
fcntl
_ZN5QChar10digitValueEj
_ZN11QChildEventC2EN6QEvent4TypeEP7QObject
_ZNK15QDateTimeParser20potentialValueHelperERK7QStringiiii
_ZNK13QMetaProperty10enumeratorEv
_ZN16QCoreApplication9postEventEP7QObjectP6QEvent
_ZN4QDir6removeERK7QString
_ZNK13QFSFileEngine8fileTimeEN19QAbstractFileEngine8FileTimeE
_ZN9QDateTimeD1Ev
_ZNK7QString10normalizedENS_17NormalizationFormEN5QChar14UnicodeVersionE
_ZN4QUrl7setPathERK7QString
_ZN24QAbstractEventDispatcher10startingUpEv
_ZNK9QIODevice10isReadableEv
_ZN8QVariantC1EN2Qt11GlobalColorE
_ZN8QProcess13startDetachedERK7QString
_ZNK9QSettings10metaObjectEv
_ZrsR11QDataStreamR5QTime
_ZNK7QString8endsWithERK5QCharN2Qt15CaseSensitivityE
_ZN14QTemporaryFileC1ERK7QString
_ZN5QChar7toLowerEj
_ZTS7QThread
_ZN4QDirC2ERK7QString
_ZN16QTextCodecPluginC1EP7QObject
_ZNK15QDateTimeParser8setDigitER8QVariantii
_ZNK5QChar7toLowerEv
pthread_setschedparam
_ZNK13QSignalMapper7mappingEP7QWidget
_ZNK6QLineF9intersectERKS_P7QPointF
_ZNK19QAbstractFileEngine3posEv
_ZN14QObjectPrivate19_q_reregisterTimersEPv
_ZN7QLocaleC1ERK7QString
_Zls6QDebugRK5QTime
_ZNK9QTimeLine12currentFrameEv
_ZN13QPluginLoaderD1Ev
_ZNK13QFontLaoCodec4nameEv
_ZNK9QFileInfo6isFileEv
_ZNK19QAbstractTableModel5indexEiiRK11QModelIndex
_ZN8QVariantC2EN2Qt11GlobalColorE
strcmp
_ZN11QTextStreamlsEs
_ZN11QTextStreamlsEt
_ZN5QFile10unsetErrorEv
_ZN11QTextStreamlsEx
_ZN9QIODeviceC1Ev
_ZN11QTextStreamlsEy
_ZTV13QSystemLocale
_ZN11QThreadData5derefEv
_Z19qInstallPathPluginsv
_ZN9QMimeData7setDataERK7QStringRK10QByteArray
_Zls6QDebugRK9QDateTime
_ZN10QByteArray6numberExi
_ZNK13QFSFileEngine9entryListE6QFlagsIN4QDir6FilterEERK11QStringList
_ZNK13QMetaProperty4nameEv
_ZN16QCoreApplication16sendPostedEventsEP7QObjecti
_ZTS11QTextStream
_ZN5QFileC2ER12QFilePrivateP7QObject
_ZN9QIODeviceC1EP7QObject
_ZN9QIODeviceD1Ev
_ZN8QProcess7startedEv
_ZN11QTextStreamC2EP8_IO_FILE6QFlagsIN9QIODevice12OpenModeFlagEE
_ZN9QBitArrayaNERKS_
ftruncate64
_ZNK10QByteArray8endsWithERKS_
_ZN9QIODevice4seekEx
_ZN9QDateTimeC2ERK5QDateRK5QTimeN2Qt8TimeSpecE
_ZNK8QProcess12isSequentialEv
_ZN9QTimeLine13setStartFrameEi
_ZNK11QMetaObject15classInfoOffsetEv
_ZN12QSockNotTypeD1Ev
_ZN13QFSFileEngine8homePathEv
_ZN9QListData6insertEi
backtrace_symbols
_ZNK11QMetaObject12methodOffsetEv
_ZN5QFile4seekEx
_ZN9QTimeLineC2EiP7QObject
_ZNK4QDir6rmpathERK7QString
open
_ZN11QTextStream22setRealNumberPrecisionEi
_ZN10QByteArray6numberEyi
_ZN12QSockNotTypeC1Ev
_ZNK7QString11toLocal8BitEv
_ZN9QFileInfoC2ERK7QString
_ZN5QTime10fromStringERK7QStringN2Qt10DateFormatE
_ZN23QCoreApplicationPrivate15eventDispatcherE
_ZNK7QStringgtERK13QLatin1String
_ZrsR11QDataStreamR6QRectF
_ZNK5QChar14unicodeVersionEv
_ZN18QCryptographicHash7addDataEPKci
_ZN5QChar8categoryEj
_ZN19QAbstractFileEngineC2ER26QAbstractFileEnginePrivate
_ZNK10QByteArray7toUpperEv
_ZN24QAbstractEventDispatcherD1Ev
_ZN9QDateTime10fromStringERK7QStringN2Qt10DateFormatE
_ZN6QTimer10timerEventEP11QTimerEvent
_ZNK7QLocale7percentEv
_ZN20QEventDispatcherGlib22registerSocketNotifierEP15QSocketNotifier
_ZN7QString14fromWCharArrayEPKwi
_ZNK13QFSFileEngine4sizeEv
_ZN5QDate12shortDayNameEi
_ZN8QVariantC2ERK5QTime
_ZN6QTimer5startEv
_ZNK4QDireqERKS_
_ZN5QChar8categoryEt
_ZN11QTextStreamlsEc
_ZN11QTextStreamlsEd
_ZN21QObjectCleanupHandler11qt_metacallEN11QMetaObject4CallEiPPv
_ZN12QLibraryInfo8buildKeyEv
_ZN4QUrl12idnWhitelistEv
_ZNK5QDate5monthEv
_ZN11QTextStreamlsEf
_ZN4QDir9setFilterE6QFlagsINS_6FilterEE
_ZN4QDiraSERKS_
_ZN7QLocaleC1Ev
_ZTI10QTextCodec
_ZN11QTextStreamlsEi
_ZN7QLocaleC2ERKS_
_ZN19QAbstractTableModel11qt_metacallEN11QMetaObject4CallEiPPv
_ZN11QTextStreamlsEj
strcpy
_ZTS13QSystemLocale
_ZN7QThread9terminateEv
_ZN11QTextStreamlsEl
_ZN9QBitArrayoRERKS_
_ZN11QTextStreamlsEm
_ZN5QDate10fromStringERK7QStringS2_
_ZN11QChildEventD1Ev
_Z21qt_call_post_routinesv
_ZN10QByteArray6setNumExi
opendir
_ZNK8QProcess5stateEv
_ZN9QTimeLine15toggleDirectionEv
_ZN10QByteArray6setNumEdci
chmod
uncompress
_ZNK10QByteArray5splitEc
_Z19qInstallPathHeadersv
fork
_ZN8QVariantC2ERK6QPoint
_ZN9QDateTimeC1ERK5QDateRK5QTimeN2Qt8TimeSpecE
_ZNK8QVariant10toBitArrayEv
floor
_ZN13QSignalMapper16staticMetaObjectE
_ZN5QTime10fromStringERK7QStringS2_
_ZTI24QAbstractEventDispatcher
_Z6qIsInfd
_ZNK9QResource8childrenEv
_ZN16QCoreApplication18applicationDirPathEv
_ZN13QFSFileEngine4linkERK7QString
_ZN8QProcess15setProcessStateENS_12ProcessStateE
_ZNK4QUrl4pathEv
_Z6qIsInff
_ZN11QDataStreamrsERPc
_ZN7QString8vsprintfEPKcPc
_ZN11QTextStream5resetEv
_ZN9QTimeLine9setPausedEb
_ZNK10QByteArray8endsWithEPKc
_ZNK15QDateTimeParser11sectionSizeEi
_ZN10QByteArray6setNumEyi
_ZN4QDir14setNameFiltersERK11QStringList
_ZN8QVariantC1ERK5QTime
_ZNK8QVariant6toDateEv
_ZNK11QMetaObject4castEP7QObject
_ZN7QObjectD2Ev
_ZN8QProcess8readDataEPcx
_ZN5QDate10isLeapYearEi
_ZNK9QDateTime6isNullEv
_ZlsR11QDataStreamRK5QChar
_ZN4QDir15setMatchAllDirsEb
_ZNK7QStringltERK13QLatin1String
_ZN4QUrl9setSchemeERK7QString
_ZNK5QTime4msecEv
_ZN7QBuffer11qt_metacallEN11QMetaObject4CallEiPPv
_ZN7QString11shared_nullE
_ZN8QVariantC2ERK7QRegExp
_ZTI15QSocketNotifier
_ZN23QCoreApplicationPrivate35appendApplicationPathToLibraryPathsEv
_ZNK19QAbstractFileEngine9fileFlagsE6QFlagsINS_8FileFlagEE
_ZNK9QMimeData9imageDataEv
_ZN18QAbstractItemModel17headerDataChangedEN2Qt11OrientationEii
_ZN11QTextStream10setPadCharE5QChar
_ZN13QFSFileEngine8readLineEPcx
_ZTI16QCoreApplication
_ZN7QString9fromUtf16EPKti
_ZN4QDir18toNativeSeparatorsERK7QString
_ZNK19QAbstractTableModel6parentERK11QModelIndex
_ZN11QTextStream11setEncodingENS_8EncodingE
_ZN18QAbstractItemModel23setSupportedDragActionsE6QFlagsIN2Qt10DropActionEE
strncpy
_ZN8QVariantC2ERK11QStringList
_ZN5QSize9transposeEv
_ZN9QSettings8endGroupEv
tzname
_ZTS27QDynamicPropertyChangeEvent
strstr
_ZN8QVariantC1ERK7QPointF
_ZNK19QAbstractFileEngine6handleEv
_ZNK9QTimeLine10curveShapeEv
_ZNK4QUrl19queryValueDelimiterEv
_ZN11QMetaObject16checkConnectArgsEPKcS1_
_ZN18QAbstractItemModel10removeRowsEiiRK11QModelIndex
_ZN9QFileInfo10setCachingEb
_ZlsR11QDataStreamRK5QSize
_ZN8QProcessC1EP7QObject
_ZN11QBasicTimer5startEiP7QObject
_ZN25QPersistentModelIndexData7destroyEPS_
_ZTI11QTextStream
_ZN4QUrl12setAuthorityERK7QString
_ZN18QAbstractItemModel25changePersistentIndexListERK5QListI11QModelIndexES4_
_ZN14QTemporaryFile13setAutoRemoveEb
_ZN8QVariant6createEiPKv
_ZN9QIODevice4readEPcx
_ZN8QProcess14waitForStartedEi
fseeko64
_ZNK5QChar9directionEv
_ZN10QMutexPool8instanceEv
_ZNK9QIODevice11canReadLineEv
_ZN15QSocketNotifierC1EiNS_4TypeEP7QObject
_ZNK11QTextStream6statusEv
_ZN15QSocketNotifierD2Ev
strlen
_ZN11QTextStreamC1EP10QByteArray6QFlagsIN9QIODevice12OpenModeFlagEE
_ZNK7QString8multiArgEiPPKS_
_ZNK8QVariant6toCharEv
_ZN23QCoreApplicationPrivate21isTranslatorInstalledEP11QTranslator
_ZlsR11QDataStreamRK6QLineF
_ZN7QLocale16languageToStringENS_8LanguageE
_ZN11QTextStreamrsERc
_ZN11QTextStreamrsERd
_ZNK7QString11lastIndexOfERK7QRegExpi
_ZN19QAbstractFileEngineC1Ev
_ZN4QUrl15setIdnWhitelistERK11QStringList
_ZN11QTextStreamrsERf
_ZN15QSocketNotifier10setEnabledEb
_ZN14QMetaCallEvent13placeMetaCallEP7QObject
_ZNK9QFileInfo7createdEv
fopen
_ZNK18QAbstractItemModel4spanERK11QModelIndex
_ZN11QTextStreamrsERi
_ZN11QTextStreamrsERj
_ZN20QEventDispatcherGlib5flushEv
_ZN18QAbstractItemModel16staticMetaObjectE
_ZNK8QProcess14bytesAvailableEv
_ZN11QTextStreamrsERl
_ZN7QString6numberEyi
_ZeqRK7QStringRK10QStringRef
_ZN11QTextStreamrsERm
_ZNK4QDir5countEv
setlocale
_ZN8QVariantC2ERKS_
_ZNK10QByteArray5rightEi
_ZN19QAbstractFileEngineD1Ev
_ZNK13QFSFileEngine3posEv
strncmp
_ZN4QUrlC2ERKS_
_ZN13QFSFileEngine5writeEPKcx
_ZNK8QLibrary11errorStringEv
_ZNK15QDateTimeParser7findDayERK7QStringiiPS0_Pi
_ZN19QAbstractFileEngineC1ER26QAbstractFileEnginePrivate
_ZNK9QFileInfo10bundleNameEv
_ZN11QTextStreamrsERs
_ZN11QTextStreamrsERt
nl_langinfo
_ZN5QFile8readLinkERK7QString
_ZN11QTextStreamrsERx
_ZN8QProcess22readyReadStandardErrorEv
pthread_attr_setschedpolicy
_ZN20QEventDispatcherGlib15unregisterTimerEi
_ZN11QTextStreamrsERy
_ZN20QEventDispatcherGlib16unregisterTimersEP7QObject
_ZN11QTextStreamC1EP9QIODevice
_ZN19QAbstractFileEngine11setFileNameERK7QString
_ZN7QString6numberExi
_ZNK7QLocale6toUIntERK7QStringPbi
mkdir
_ZN10QSemaphore7acquireEi
_ZTI12QCustomEvent
_ZNK10QByteArray5countEc
_ZN5QFile6resizeERK7QStringx
_ZN11QTextStreamC2EP7QString6QFlagsIN9QIODevice12OpenModeFlagEE
_ZNK8QVariant6toBoolEv
_ZNK15QDateTimeParser8getDigitERK8QVarianti
_ZN5QTime11currentTimeEv
_ZN9QIODevice4readEx
_Z6qIsNaNd
_ZN10QByteArray7prependERKS_
_Z18qInstallMsgHandlerPFv9QtMsgTypePKcE
_Z6qIsNaNf
_ZNK27QAbstractFileEngineIterator9entryInfoENS_13EntryInfoTypeE
_ZN10QEventLoop11qt_metacastEPKc
_ZN11QTextStreamC1EP7QString6QFlagsIN9QIODevice12OpenModeFlagEE
_ZN13QSignalMapperD0Ev
_ZN11QTextStream11resetStatusEv
_ZNK9QMimeData4textEv
_ZN11QTextStreamC2EP10QByteArray6QFlagsIN9QIODevice12OpenModeFlagEE
_ZN7QThreadD2Ev
_ZNK9QFileInfo9isSymLinkEv
_ZNK15QDateTimeParser11getAmPmTextENS_4AmPmENS_4CaseE
_ZN7QObject17removeEventFilterEPS_
_ZNK14QLocalePrivate16longLongToStringExiiij
_ZNK9QMetaEnum10keyToValueEPKc
_ZNK7QLocale9zeroDigitEv
_ZTI8QProcess
_ZN9QIODevice7readAllEv
_ZN7QRegExpC1ERK7QStringN2Qt15CaseSensitivityENS_13PatternSyntaxE
_Z5qHashRK10QByteArray
_ZN20QEventDispatcherUNIX6wakeUpEv
_ZN11QTextStream9setStatusENS_6StatusE
_ZNK9QIODevice6isOpenEv
_ZN13QSignalMapperC2EP7QObject
_ZN12QTextDecoder9toUnicodeEP7QStringPKci
_ZNK13QMetaProperty8isStoredEPK7QObject
_ZN16QCoreApplication16organizationNameEv
_ZN5QFile19setDecodingFunctionEPF7QStringRK10QByteArrayE
_ZN11QBasicTimer4stopEv
_ZN18QAbstractListModelD1Ev
_ZN18QAbstractItemModel21rowsAboutToBeInsertedERK11QModelIndexii
_ZNK18QAbstractListModel6parentERK11QModelIndex
_ZN12QLibraryInfo8licenseeEv
_ZN4QDir10setCurrentERK7QString
_ZN5QFileC1EP7QObject
_ZN9QFileInfoC1ERK4QDirRK7QString
_Zls6QDebugRK6QSizeF
_ZN9QMetaType7destroyEiPv
_ZNK9QFileInfo8filePathEv
__bss_start
_ZN7QString6insertEi5QChar
_ZN8QProcess17closeWriteChannelEv
_ZN7QString6removeE5QCharN2Qt15CaseSensitivityE
_ZN8QProcessD0Ev
_ZNK14QLocalePrivate16stringToLongLongERK7QStringiPbNS_18GroupSeparatorModeE
_ZNK4QUrleqERKS_
_ZTS9QTimeLine
_ZN9QMetaType8typeNameEi
_ZNK9QResource8fileNameEv
_ZN11QTextStream8setCodecEPKc
iconv_close
_ZN27QAbstractFileEngineIteratorD2Ev
_ZN18QAbstractItemModel14columnsRemovedERK11QModelIndexii
_ZN9QFileInfoC2ERKS_
_ZNK8QProcess11canReadLineEv
_ZN8QVariantC2ERK6QLineF
_Z21qRegisterResourceDataiPKhS0_S0_
_ZTI11QTimerEvent
_ZN23QCoreApplicationPrivate13notify_helperEP7QObjectP6QEvent
_ZN8QVariantC1ERK4QUrl
_ZN14QObjectPrivateD0Ev
_ZTS15QDateTimeParser
_ZNK18QFileSystemWatcher5filesEv
_ZN7QThread6msleepEm
_ZN9QTimeLine10timerEventEP11QTimerEvent
_ZNK7QString12toCaseFoldedEv
_ZN12QTextDecoder9toUnicodeERK10QByteArray
_ZN10QByteArray6expandEi
fclose
_ZN25QAbstractItemModelPrivate20rowsAboutToBeRemovedERK11QModelIndexii
_ZNK8QVariant7toLineFEv
_ZN6QTimerD0Ev
_ZNK11QDataStream5atEndEv
_ZNK11QTextStream5atEndEv
_ZNK7QRegExp13patternSyntaxEv
_ZN10QEventLoopD2Ev
_ZNK10QByteArray7toULongEPbi
_ZN5QChar13decompositionEj
_ZTS27QAbstractFileEngineIterator
_ZN9QMetaType12registerTypeEPKcPFvPvEPFS2_PKvE
_ZNK15QDateTimeParser9isSpecialERK5QChar
_ZN16QCoreApplication10startingUpEv
_ZN27QDynamicPropertyChangeEventD0Ev
_ZN9QHashData12previousNodeEPNS_4NodeE
_ZN10QTextCodec13availableMibsEv
_ZNK7QString8toUShortEPbi
_ZN19QAbstractFileEngine6removeEv
_ZN8QVariantC1ERK13QLatin1String
_ZN18QAbstractItemModel13setHeaderDataEiN2Qt11OrientationERK8QVarianti
_ZN14QMetaCallEventD2Ev
_ZN13QFSFileEngine14beginEntryListE6QFlagsIN4QDir6FilterEERK11QStringList
_ZN5QFile9writeDataEPKcx
_ZNK19QAbstractFileEngine17supportsExtensionENS_9ExtensionE
_ZN4QDir10setSortingE6QFlagsINS_8SortFlagEE
_ZN11QTextStream24setGenerateByteOrderMarkEb
_ZN4QDir11searchPathsERK7QString
_ZNK9QDateTime7addSecsEi
_ZNK4QUrl11errorStringEv
_Z9qChecksumPKcj
_ZNK4QUrl8userNameEv
_ZN7QString6numberEdci
_ZTS8QProcess
_ZN14QTemporaryFile11qt_metacastEPKc
_ZN4QUrl11setUserNameERK7QString
_ZN16QIODevicePrivate13putCharHelperEc
_ZN8QVariant4dataEv
_ZN16QIODevicePrivateC2Ev
_ZN4QDir9cleanPathERK7QString
setsid
_ZNK13QMetaProperty12isDesignableEPK7QObject
_ZNK11QMetaObject13propertyCountEv
_ZN25QAbstractItemModelPrivate25removePersistentIndexDataEP25QPersistentModelIndexData
_Z7qgetenvPKc
_ZNK9QMetaEnum3keyEi
_ZN11QTextStreamC1ERK10QByteArray6QFlagsIN9QIODevice12OpenModeFlagEE
_ZN11QTextStreamC2EP9QIODevice
_ZNK4QUrl10isParentOfERKS_
_ZN10QMutexPoolD1Ev
_ZN10QByteArray6appendEPKc
_ZNK11QTextStream13flagsInternalEv
_Z3decR11QTextStream
_ZN10QByteArrayC1EPKc
_ZN16QIODevicePrivateD2Ev
_ZN18QAbstractListModelC2ER25QAbstractItemModelPrivateP7QObject
_ZN13QPluginLoaderD0Ev
_ZN18QAbstractItemModel6revertEv
_ZTS10QEventLoop
malloc
_ZltRK10QStringRefS1_
_ZN18QAbstractItemModel10modelResetEv
_ZNK13QSystemLocale5queryENS_9QueryTypeE8QVariant
_ZN15QSocketNotifier9activatedEi
_ZN8QProcess7executeERK7QStringRK11QStringList
_ZNK5QChar7toAsciiEv
_Z5rightR11QTextStream
_ZN9QHashData11shared_nullE
_ZNK15QDateTimeParser9maxChangeEi
_ZN27QDynamicPropertyChangeEventC2ERK10QByteArray
_ZNK5QFile12isSequentialEv
_ZN8QProcess9writeDataEPKcx
_ZN5QUuid10createUuidEv
_ZN11QDataStreamlsEPKc
strtod
_ZNK14QMetaClassInfo5valueEv
g_main_context_new
_ZN9QtPrivate23QStringList_lastIndexOfEPK11QStringListRK7QRegExpi
_ZN9QIODeviceD0Ev
_ZN27QDynamicPropertyChangeEventC1ERK10QByteArray
_ZN11QTextStream9setDeviceEP9QIODevice
_ZNK15QDateTimeParser9fieldInfoEi
_Z13uppercasebaseR11QTextStream
_ZN10QByteArray5clearEv
_ZN11QChildEventC1EN6QEvent4TypeEP7QObject
_ZNK4QUrl9toEncodedE6QFlagsINS_16FormattingOptionEE
_ZN8QLibrary11qt_metacastEPKc
sigemptyset
_ZN18QAbstractItemModel15beginRemoveRowsERK11QModelIndexii
_ZN6QMutexD1Ev
_ZN14QReadWriteLock11lockForReadEv
_ZN19QAbstractFileEngine4copyERK7QString
_ZN8QVariantC2ERK7QLocale
_ZN8QVariantC1ERK5QSize
_ZNK7QString3argExiiRK5QChar
_ZNK21QPersistentModelIndex6parentEv
_ZNK9QTimeLine8endFrameEv
access
_ZNK9QDateTime8timeSpecEv
_ZN13QFSFileEngine14setCurrentPathERK7QString
_ZNK7QBuffer11canReadLineEv
isupper
_ZN11QTsciiCodecD2Ev
_ZTS11QTimerEvent
_ZNK9QDateTime8addMSecsEx
_ZN13QSignalMapper10setMappingEP7QObjectS1_
_ZN7QObject14dumpObjectInfoEv
_ZNK7QString3argEdiciRK5QChar
_ZN9QIODevice4peekEPcx
_ZN16QCoreApplicationC1ER23QCoreApplicationPrivate
_ZNK20QEventDispatcherUNIX16registeredTimersEP7QObject
_ZN24QAbstractEventDispatcherD0Ev
_ZN13QPluginLoader11qt_metacallEN11QMetaObject4CallEiPPv
_ZN13QFSFileEngine4readEPcx
_ZN14QObjectPrivate13readWriteLockEv
_ZN9QSettingsD2Ev
_ZN8QLibraryC1EP7QObject
_Z8qstricmpPKcS0_
_ZN6QTimer11setIntervalEi
_ZNK7QLocale1dEv
_ZNK5QFile6existsEv
g_source_unref
_ZrsR11QDataStreamR7QPointF
_ZN8QVariantC2ERK6QSizeF
_ZN8QVariantC2ERK5QSize
_ZN16QCoreApplication10unixSignalEi
_ZN10QByteArray6insertEiPKc
_ZTI14QFactoryLoader
_Z9qCompressPKhii
_ZN11QChildEventD0Ev
_ZN24QAbstractEventDispatcherC1ER31QAbstractEventDispatcherPrivateP7QObject
_ZN7QThread7cleanupEv
_ZN13QPluginLoader4loadEv
pthread_attr_setstacksize
_ZNK9QDateTime7addDaysEi
_ZN7QString9fromAsciiEPKci
_ZN14QStringMatcheraSERKS_
_ZNK13QFontLaoCodec16convertToUnicodeEPKciPN10QTextCodec14ConverterStateE
_ZN7QString8truncateEi
_ZNK11QTextStream11numberFlagsEv
_ZNK7QString5toIntEPbi
_ZN9QTimeLine14setCurrentTimeEi
_ZN19QAbstractTableModel11qt_metacastEPKc
_ZTI18QAbstractListModel
_ZNK9QSettings11childGroupsEv
_ZN13QSignalMapper10setMappingEP7QObjectRK7QString
_ZNK6QRectForERKS_
_ZNK7QThread9isRunningEv
_ZN18QThreadStorageDataC2EPFvPvE
_ZN19QAbstractFileEngine4openE6QFlagsIN9QIODevice12OpenModeFlagEE
_ZN13QFSFileEngine5flushEv
_ZNK7QLocale12negativeSignEv
_ZN10QByteArrayC1EPKci
_ZN7QThread6usleepEm
_ZN14QReadWriteLockC1Ev
_ZN8QVariant10nameToTypeEPKc
_ZN5QUuidC2ERK7QString
_ZN11QDataStream12writeRawDataEPKci
_ZNK11QMetaMethod9signatureEv
waitpid
_ZN14QLocalePrivate22bytearrayToUnsLongLongEPKciPb
_ZN16QCoreApplication19setOrganizationNameERK7QString
_ZN5QSize5scaleERKS_N2Qt15AspectRatioModeE
_ZNK5QChar16isLetterOrNumberEv
clock_gettime
_ZN13QSignalMapperC1EP7QObject
_ZTV10QTextCodec
qsort
_ZN5QChar9directionEt
_ZN14QReadWriteLockD1Ev
_ZTV14QFactoryLoader
_ZNK21QPersistentModelIndex7siblingEii
_ZN19QAbstractFileEngine5writeEPKcx
_ZN18QThreadStorageDataC1EPFvPvE
_ZN11QTextStreamrsEPc
_ZN9QIODevice5resetEv
_ZTI26QAbstractFileEngineHandler
_ZNK13QPluginLoader8isLoadedEv
_ZN19QAbstractTableModelC2ER25QAbstractItemModelPrivateP7QObject
_ZN9QSettings5clearEv
_ZNK21QPersistentModelIndexeqERK11QModelIndex
_ZNK7QString11lastIndexOfE5QChariN2Qt15CaseSensitivityE
_ZNK7QString10simplifiedEv
_ZN9QIODevice18setTextModeEnabledEb
realloc
_ZN19QAbstractFileEngine4linkERK7QString
time
_Z5resetR11QTextStream
_ZN11QTextStreamlsE5QBool
_ZTVN10__cxxabiv121__vmi_class_type_infoE
_ZN7QThread10terminatedEv
_ZN19QAbstractTableModelD1Ev
_ZNK9QSettings7allKeysEv
_ZNK9QTimeLine10startFrameEv
_ZN13QFSFileEngine8tempPathEv
_ZNK7QString8endsWithERKS_N2Qt15CaseSensitivityE
_ZN4QUrl11setFragmentERK7QString
_ZNK7QLocale8toStringERK5QTimeNS_10FormatTypeE
_ZN5QFile6resizeEx
_ZNK4QDir7dirNameEv
_ZN9QIODevice4openE6QFlagsINS_12OpenModeFlagEE
__moddi3
rename
_ZNK7QLocale13numberOptionsEv
_ZN10QByteArray4chopEi
_ZN12QLibraryInfo16licensedProductsEv
_ZN17QByteArrayMatcher10setPatternERK10QByteArray
_ZN5QFile6removeERK7QString
_ZN9QtPrivate16QStringList_joinEPK11QStringListRK7QString
_ZNK11QMetaObject10enumeratorEi
_ZTV16QCoreApplication
_ZTS21QObjectCleanupHandler
_ZN8QVariantC2ERK9QBitArray
_ZTV8QProcess
_ZN8QProcess17systemEnvironmentEv
_ZN23QCoreApplicationPrivate19checkReceiverThreadEP7QObject
strdup
_ZNK8QVariant6toSizeEv
signal
_ZN15QSocketNotifier11qt_metacallEN11QMetaObject4CallEiPPv
_ZNK14QStringMatcher7indexInERK7QStringi
_ZN8QProcess21setProcessChannelModeENS_18ProcessChannelModeE
_ZN9QIODevice16waitForReadyReadEi
qt_signal_spy_callback_set
_ZlsR11QDataStreamRK5QLine
_ZNK11QTranslator9translateEPKcS1_S1_
_ZNK7QString10startsWithERK5QCharN2Qt15CaseSensitivityE
_ZNK4QUrl10isRelativeEv
_Z7qstrtodPKcPS0_Pb
_ZNK4QDir6existsERK7QString
_ZNK9QFileInfo5ownerEv
_ZNK10QByteArray6toLongEPbi
_ZN8QVariantC1ERK9QBitArray
_ZNK10QByteArray8endsWithEc
_ZNK8QProcess11environmentEv
_ZNK10QStringRef8appendToEP7QString
_ZN5QChar14combiningClassEt
getcwd
_ZN20QEventDispatcherUNIX11qt_metacallEN11QMetaObject4CallEiPPv
_ZN8QLibraryC1ERK7QStringiP7QObject
_ZNK5QDate4yearEv
_ZN16QCoreApplication4quitEv
_ZN8QProcess13startDetachedERK7QStringRK11QStringList
_ZNK8QLibrary8fileNameEv
_ZN9QDateTime15currentDateTimeEv
_ZN9QInternal16registerCallbackENS_8CallbackEPFbPPvE
_ZN10QByteArray7reallocEi
_ZN11QMetaObject11changeGuardEPP7QObjectS1_
_ZTI9QSettings
_ZNK8QVariant8userTypeEv
_ZNK9QTimeLine9directionEv
_ZNK11QTsciiCodec7mibEnumEv
_ZNK9QFileInfo7groupIdEv
feholdexcept
_ZN6QMutexC1ENS_13RecursionModeE
_ZNK9QTimeLine9loopCountEv
_ZN13QPluginLoader15staticInstancesEv
_ZN9QResource16registerResourceERK7QStringS2_
_ZN11QTextStream4seekEx
_ZN14QFactoryLoader16staticMetaObjectE
_ZNK18QAbstractItemModel8mimeDataERK5QListI11QModelIndexE
_ZNK19QAbstractFileEngine9entryListE6QFlagsIN4QDir6FilterEERK11QStringList
_ZN5QTimeC2Eiiii
_ZNK21QPersistentModelIndex10internalIdEv
_ZN7QThread4execEv
_ZNK9QDateTimeeqERKS_
_ZNK18QAbstractItemModel9mimeTypesEv
_ZN16QCoreApplication18setApplicationNameERK7QString
_ZN13QSignalMapperD1Ev
_ZNK24QAbstractEventDispatcher10metaObjectEv
_ZNK5QTime7addSecsEi
_ZN5QChar14combiningClassEj
_ZNK9QFileInfo8baseNameEv
_Zls6QDebugRK8QVariant
_ZN7QThreadD1Ev
_ZN13QFSFileEngineC1ERK7QString
_ZN16QCoreApplicationC2ER23QCoreApplicationPrivate
_ZNK20QEventDispatcherUNIX10metaObjectEv
pthread_setcancelstate
_ZN8QLibraryC2ERK7QStringiP7QObject
_ZNK17QByteArrayMatcher7indexInERK10QByteArrayi
_ZNK27QAbstractFileEngineIterator7filtersEv
_ZN9QTimeLine12frameChangedEi
_ZNK10QByteArray7toFloatEPb
_ZN8QProcess20setStandardInputFileERK7QString
_ZN9QSettings10beginGroupERK7QString
_ZN10QEventLoop13processEventsE6QFlagsINS_17ProcessEventsFlagEE
_ZN10QEventLoopC1EP7QObject
_ZN8QVariantC1EPKc
_ZNK15QDateTimeParser5parseERK7QStringRK8QVariantb
kill
_ZNK21QPersistentModelIndexltERKS_
_ZN18QCryptographicHashD2Ev
_ZN7QString12shared_emptyE
__lxstat64
_ZN18QAbstractListModelD0Ev
_Z5qHashRK7QString
_ZN8QLibrary7resolveERK7QStringPKc
_ZN4QUrl13fromLocalFileERK7QString
_ZN7QRegExp18setCaseSensitivityEN2Qt15CaseSensitivityE
pipe
_ZNK7QString3argEyiiRK5QChar
_ZNK9QMimeData9hasFormatERK7QString
_ZN16QCoreApplication10enter_loopEv
_ZNK4QDir12matchAllDirsEv
_ZNK7QString5rightEi
_ZN8QVariantC2ERK9QDateTime
_ZNK8QVariant4typeEv
_ZNK9QFileInfo11absoluteDirEv
_ZN12QCustomEventD0Ev
_ZN4QUrl13setQueryItemsERK5QListI5QPairI7QStringS2_EE
_ZN12QTextEncoder11fromUnicodeERK7QString
_Z7qstrcmpPKcS0_
_ZNK18QCryptographicHash6resultEv
_ZN8QProcessD1Ev
_ZNK7QThread8priorityEv
_ZN21QPersistentModelIndexaSERKS_
_ZNK10QByteArray10startsWithEPKc
_ZrsR11QDataStreamR5QDate
_ZN5QFile11setFileNameERK7QString
_ZrsR11QDataStreamR9QBitArray
_ZN7QRegExpC2ERKS_
_ZN5QChar9directionEj
_ZN7QStringaSERKS_
_ZN9QListData6detachEv
_ZN25QAbstractItemModelPrivate22addPersistentIndexDataEP25QPersistentModelIndexData
_ZN14QTemporaryFileC2EP7QObject
_ZN7QRegExp10setMinimalEb
_ZN9QBitArrayC2Eib
_ZNK10QByteArray8toBase64Ev
_ZN15QSocketNotifier11qt_metacastEPKc
_ZN12QTextDecoder9toUnicodeEPKci
_ZN6QTimerD1Ev
_ZN7QBuffer11qt_metacastEPKc
_ZN14QFactoryLoader11qt_metacallEN11QMetaObject4CallEiPPv
_ZN18QAbstractItemModel13endInsertRowsEv
_ZN8QProcess18setReadChannelModeENS_18ProcessChannelModeE
_ZN13QFSFileEngine8rootPathEv
_ZNK14QLocalePrivate13validateCharsERK7QStringNS_10NumberModeEP10QByteArrayi
_ZNK7QBuffer10metaObjectEv
_ZN4QDirD1Ev
_ZNK9QResource16absoluteFilePathEv
_ZNK8QVariant10canConvertENS_4TypeE
_ZN27QDynamicPropertyChangeEventD1Ev
_ZTV18QAbstractItemModel
_ZNK18QAbstractItemModel10headerDataEiN2Qt11OrientationEi
 _ZN14QMetaCallEventD1Ev
 _ZN5QFile11permissionsERK7QString
 _ZTS27QEventDispatcherUNIXPrivate
 _ZN20QEventDispatcherUNIX13registerTimerEiiP7QObject
 environ
 _ZNK11QMetaObject14classInfoCountEv
 _ZN7QString13fromLocal8BitEPKci
 _ZNK9QSettings16fallbacksEnabledEv
 _ZNK8QVariant6toLineEv
 _ZNK7QString12toWCharArrayEPw
 _ZNK13QMetaProperty10isEditableEPK7QObject
 _ZNK9QConfFile12mergedKeyMapEv
 _ZN11QThreadData7currentEv
 _ZN11QDataStream9setDeviceEP9QIODevice
 _ZNK7QRegExp10exactMatchERK7QString
 _ZrsR11QDataStreamR6QSizeF
 _ZNK7QLocale10dateFormatENS_10FormatTypeE
 _ZNK11QTsciiCodec4nameEv
 _Z10qAllocMoreii
 _ZN13QFSFileEngine6renameERK7QString
 _ZN11QVectorData11shared_nullE
 _ZN8QVariantC1ERK9QDateTime
 _ZN16QIODevicePrivateC1Ev
 _Z6qDebugPKcz
 _ZN7QObject11qt_metacallEN11QMetaObject4CallEiPPv
 _ZTV15QSocketNotifier
 _ZNK11QMetaObject6methodEi
 _ZN9QBitArrayC1Eib
 _ZNK7QString5splitERK7QRegExpNS_13SplitBehaviorE
 _ZNK9QDateTime9addMonthsEi
 pthread_cond_broadcast
 _ZN19QAbstractFileEngine14beginEntryListE6QFlagsIN4QDir6FilterEERK11QStringList
 _ZN19QAbstractFileEngine4seekEx
 _ZlsR11QDataStreamRK7QLocale
 _ZN9QTimeLine16staticMetaObjectE
 _ZN7QLocaleC2ERK7QString
 _ZN10QMutexPoolD2Ev
 tolower
 _ZN9QTimeLine13setCurveShapeENS_10CurveShapeE
 _ZN16QIODevicePrivateD1Ev
 _ZTI12QDirIterator
 _ZN23QCoreApplicationPrivate13theMainThreadE
 _ZNK5QChar10digitValueEv
 localtime_r
 _ZTI7QThread
 g_source_add_poll
 _ZN18QAbstractListModel11qt_metacastEPKc
 _ZNK5QChar12mirroredCharEv
 _Z32qt_register_signal_spy_callbacksRK21QSignalSpyCallbackSet
 _ZNK7QString10toLongLongEPbi
 _ZN6QTimer10singleShotEiP7QObjectPKc
 _ZN16QCoreApplication13processEventsE6QFlagsIN10QEventLoop17ProcessEventsFlagEE
 _ZN16QCoreApplication18removePostedEventsEP7QObject
 _ZN5QChar16decompositionTagEj
 _ZNK10QByteArray10startsWithEc
 _Z10scientificR11QTextStream
 _ZN9QSettings16setSystemIniPathERK7QString
 _ZN13QPluginLoader16staticMetaObjectE
 _ZN9QDateTimeC1ERKS_
 _ZNK5QFile5atEndEv
 _ZN11QTextStream13setFieldWidthEi
 _ZNK15QDateTimeParser9stateNameEi
 _ZN18QAbstractItemModel11setItemDataERK11QModelIndexRK4QMapIi8QVariantE
 _ZN7QString8fromUtf8EPKci
 _ZNK10QByteArray7toShortEPbi
 pthread_once
 _ZNK13QMetaProperty12isResettableEv
 _ZN16QCoreApplication4argcEv
 _ZN7QLocaleaSERKS_
 _ZN4QUrl18setQueryDelimitersEcc
 _ZN9QListData7reallocEi
 _ZNK5QUuid7variantEv
 _ZN9QTimeLineC1EiP7QObject
 _ZTV11QTimerEvent
 _ZN14QWaitConditionD2Ev
 _ZN7QString7replaceERKS_S1_N2Qt15CaseSensitivityE
 _ZN12QLibraryInfo8locationENS_15LibraryLocationE
 _ZNK10QTextCodec9canEncodeERK7QString
 _ZTV27QDynamicPropertyChangeEvent
 _ZNK20QEventDispatcherGlib16registeredTimersEP7QObject
 _ZN5QTime7restartEv
 _ZTI13QSignalMapper
 _ZN10QByteArray7prependEc
 _ZN7QThread5sleepEm
 _ZN5QFile11qt_metacallEN11QMetaObject4CallEiPPv
 _ZN7QString16codecForCStringsE
 _ZN8QVariantC1ERK4QMapI7QStringS_E
 _ZN20QEventDispatcherUNIX5flushEv
 _ZN10QEventLoop6wakeUpEv
 _ZN16QCoreApplication4initEv
 _ZN13QSignalMapper6mappedEP7QObject
 _ZN14QWaitConditionC2Ev
 _ZeqRKN15QDateTimeParser11SectionNodeES2_
 _ZTV9QTimeLine
 _ZN8QVariantC1ERK6QPoint
 _ZN13QPluginLoader11qt_metacastEPKc
 _ZN8QLibrary9isLibraryERK7QString
 _ZNK11QMetaMethod14parameterTypesEv
 _ZTI9QMimeData
 _ZN7QObject9setParentEPS_
 _ZN7QString7reallocEv
 _Z7qMallocj
 _ZTI19QAbstractTableModel
 _ZN15QLinkedListData11shared_nullE
 _ZN5QDate7setDateEiii
 _ZN9QSettingsD1Ev
 _ZN14QObjectPrivate16setParent_helperEP7QObject
 _ZNK15QDateTimeParser10getMinimumEv
 _ZNK9QMimeData12retrieveDataERK7QStringN8QVariant4TypeE
 _ZN13QFSFileEngine14setPermissionsEj
 _ZN9QSettings13setArrayIndexEi
 _ZN9QSettingsC1EP7QObject
 _Z8qstrtollPKcPS0_iPb
 _ZN11QThreadDataD1Ev
 execve
 _ZN6QTimerC2EP7QObject
 _ZN11QMetaObject18connectSlotsByNameEP7QObject
 _ZNK11QMetaObject6trUtf8EPKcS1_i
 _ZN9QFileInfoC1ERK7QString
 _ZN18QFileSystemWatcher11qt_metacallEN11QMetaObject4CallEiPPv
 _ZNK5QDate7addDaysEi
 iconv_open
 open64
 __tzname
 _ZNK9QFileInfo5groupEv
 _ZN7QObject9killTimerEi
 _ZTS16QIODevicePrivate
 _ZNK11QMetaObject2trEPKcS1_
 _ZN24QAbstractEventDispatcherC2ER31QAbstractEventDispatcherPrivateP7QObject
 _Z8qVersionv
 _ZrsR11QDataStreamR10QByteArray
 execvp
 _ZN18QAbstractItemModel24columnsAboutToBeInsertedERK11QModelIndexii
 _ZNK9QMimeData7hasUrlsEv
 _ZN9QIODevice4peekEx
 _ZNK9QIODevice12isSequentialEv
 _ZN13QPluginLoaderC2EP7QObject
 _ZN18QAbstractItemModel7setDataERK11QModelIndexRK8QVarianti
 _ZNK5QTime6secondEv
 _ZN7QBuffer9setBufferEP10QByteArray
 pthread_create
 _ZN26QAbstractFileEngineHandlerD2Ev
 _ZN10QTextCodecD1Ev
 _ZlsR11QDataStreamRK4QUrl
 _ZN10QEventLoop4execE6QFlagsINS_17ProcessEventsFlagEE
 _ZN9QFileInfo7setFileERK5QFile
 _ZNK15QDateTimeParser13sectionFormatENS_7SectionEi
 _ZN8QVariantC1ERK6QRectF
 popen
 _ZN6QMutex6unlockEv
 _ZN10QTextCodec4cftrE
 _ZNK7QString7toShortEPbi
 _ZN10QTextCodecC1Ev
 _ZN26QAbstractFileEngineHandlerC2Ev
 _ZN8QProcessC2EP7QObject
 _Z8showbaseR11QTextStream
 _ZN9QResourceC1ERK7QStringRK7QLocale
 _ZNK6QRectF10intersectsERKS_
 _ZN10QMutexPool3getEPKv
 _ZN20QEventDispatcherUNIXC1EP7QObject
 _Z13lowercasebaseR11QTextStream
 _ZN18QThreadStorageData6finishEPPv
 _Z15uppercasedigitsR11QTextStream
 _ZN6QEventD2Ev
 _ZN8QVariantC2EPKc
 _ZN7QString4chopEi
 _ZN14QObjectPrivateC2Ei
 _ZN7QString6insertEiPK5QChari
 _ZNK7QRegExp7isEmptyEv
 _ZN18QAbstractItemModelC1ER25QAbstractItemModelPrivateP7QObject
 _ZN9QConfFileC1ERK7QStringb
 __fxstat64
 _ZN7QStringC1Ei5QChar
 close
 _Zls6QDebugRK6QPoint
 _ZN8QProcess21setStandardOutputFileERK7QString6QFlagsIN9QIODevice12OpenModeFlagEE
 __sigsetjmp
 _ZN13QFSFileEngine12endEntryListEv
 _ZNK14QLocalePrivate19stringToUnsLongLongERK7QStringiPbNS_18GroupSeparatorModeE
 _ZN21QPersistentModelIndexC1Ev
 _ZNK7QLocale10toLongLongERK7QStringPbi
 _ZNK5QFile10fileEngineEv
 _ZNK21QPersistentModelIndexcvRK11QModelIndexEv
 _ZN24QAbstractEventDispatcher8instanceEP7QThread
 _ZTS24QAbstractEventDispatcher
 tzset
 _ZN11QDataStream9setStatusENS_6StatusE
 _ZN19QAbstractTableModelC1ER25QAbstractItemModelPrivateP7QObject
 _ZNK5QDate8addYearsEi
 _ZTI16QTextCodecPlugin
 _ZNK10QTextCodec11fromUnicodeERK7QString
 _ZNK7QString10startsWithERK13QLatin1StringN2Qt15CaseSensitivityE
 _ZN8QVariantaSERKS_
 _ZN21QPersistentModelIndexD1Ev
 _ZNK9QResource5isDirEv
 _ZN19QAbstractFileEngine14setPermissionsEj
 _ZN7QObjectC2EPS_
 _ZN4QUrlaSERKS_
 _ZNK9QIODevice8openModeEv
 _ZN9QResource9setLocaleERK7QLocale
 _ZN19QAbstractTableModelD0Ev
 _ZNK8QVariant8toLocaleEv
 _ZTV18QAbstractListModel
 free
 _ZN9QResourceC2ERK7QStringRK7QLocale
 _ZN18QAbstractListModelC1EP7QObject
 _ZNK7QString5countERK7QRegExp
 _ZN10QByteArray12shared_emptyE
 _Z12qInstallPathv
 _ZTS6QEvent
 _ZN7QString4freeEPNS_4DataE
 _ZN9QIODevice14setErrorStringERK7QString
 _ZN23QCoreApplicationPrivate10mainThreadEv
 _ZN14QTemporaryFileC1EP7QObject
 _ZTVN10__cxxabiv120__si_class_type_infoE
 _ZN9QTimeLine4stopEv
 _ZNK8QVariant8toRegExpEv
 _ZNK8QVariant6toTimeEv
 _ZN15QSocketNotifierD0Ev
 _ZTS26QTextCodecFactoryInterface
 sysconf
 _ZNK8QProcess18processChannelModeEv
 _ZN8QProcess5errorENS_12ProcessErrorE
 _ZN5QCharC2Ec
 _ZN20QEventDispatcherUNIX15unregisterTimerEi
 _ZN18QFileSystemWatcher16staticMetaObjectE
 _ZTS13QSignalMapper
 _ZNK5QTime4hourEv
 _ZN5QCharC2Eh
 _ZN8QVariantC2ERK7QPointF
 _ZN18QFileSystemWatcher7addPathERK7QString
 _ZNK9QDateTime10toTimeSpecEN2Qt8TimeSpecE
 _ZTS10QTextCodec
 _ZN21QObjectCleanupHandler11qt_metacastEPKc
 _ZNK10QByteArray7indexOfEci
 _ZNK4QDir13entryInfoListERK11QStringList6QFlagsINS_6FilterEES3_INS_8SortFlagEE
 _ZN18QAbstractItemModel10decodeDataEiiRK11QModelIndexR11QDataStream
 _ZN5QFile11qt_metacastEPKc
 _ZN4QDir11currentPathEv
 _ZN18QAbstractItemModel11dataChangedERK11QModelIndexS2_
 _ZN9QTimeLineD1Ev
 _ZN12QLibraryInfoC1Ev
 _ZN25QAbstractItemModelPrivate10invalidateEi
 _ZN10QByteArray7replaceEiiRKS_
 __cxa_guard_release
 _Z8qstrncpyPcPKcj
 _ZNK5QDate9dayOfYearEv
 _ZN4QDir7setPathERK7QString
 _ZNK7QString7compareERK13QLatin1StringN2Qt15CaseSensitivityE
 _ZNK10QByteArray6isNullEv
 _ZNK21QPersistentModelIndex3rowEv
 _Z10forcepointR11QTextStream
 _ZNK7QObject8propertyEPKc
 _ZTS12QCustomEvent
 _ZN10QMutexPoolC2Ebi
 _Z4leftR11QTextStream
 _ZTS9QIODevice
 _ZN7QString7reallocEi
 _ZN11QThreadDataC1Ei
 ioctl
 _ZN9QIODevice7putCharEc
 _ZNK21QPersistentModelIndex15internalPointerEv
 _ZTV7QObject
 _ZN8QVariantC1EiPKv
 _Zls6QDebugRK6QRectF
 _ZN10QMutexPoolC1Ebi
 _ZN7QObject12moveToThreadEP7QThread
 _ZN10QByteArray7prependEPKc
 _ZNK7QObject6senderEv
 _ZN9QTimeLine12stateChangedENS_5StateE
 _ZN13QSignalMapperD2Ev
 _ZNK5QDate10weekNumberEPi
 _ZN17QByteArrayMatcherC2ERK10QByteArray
 _ZNK8QVariant8toPointFEv
 _ZN8QVariantC1ERK6QLineF
 _ZN7QThreadD0Ev
 _ZNK7QString5utf16Ev
 _ZTV19QAbstractTableModel
 _ZTV15QDateTimeParser
 _ZN13QFSFileEngineD0Ev
 _ZN17QByteArrayMatcherC1ERK10QByteArray
 _ZN11QMetaObject12invokeMethodEP7QObjectPKcN2Qt14ConnectionTypeE22QGenericReturnArgument16QGenericArgumentS7_S7_S7_S7_S7_S7_S7_S7_S7_
 _ZN5QDate13longMonthNameEi
 _ZN7QRegExp13capturedTextsEv
 _ZN7QString6appendERKS_
 _ZNK7QObject20dynamicPropertyNamesEv
 _ZN18QCryptographicHashD1Ev
 _ZN4QUrl6setUrlERK7QString
 _ZN13QFSFileEngine4openE6QFlagsIN9QIODevice12OpenModeFlagEEP8_IO_FILE
 _ZN23QCoreApplicationPrivate14is_app_runningE
 _ZN11QDataStreamC1EP10QByteArrayi
 _ZN23QCoreApplicationPrivate16sendPostedEventsEP7QObjectiP11QThreadData
 _ZN18QThreadStorageData3setEPv
 _ZN18QCryptographicHash5resetEv
 _ZN24QAbstractEventDispatcher11qt_metacastEPKc
 _ZN19QAbstractTableModelC2EP7QObject
 _Z23qUnregisterResourceDataiPKhS0_S0_
 _ZNK12QDirIterator7hasNextEv
 _ZN18QThreadStorageDataD1Ev
 _ZN10QByteArray11fromRawDataEPKci
 _ZNK5QTime8addMSecsEi
 _ZorRK9QBitArrayS1_
 _ZNK10QByteArray5countEPKc
 _ZN12QCustomEventD1Ev
 _ZN18QAbstractItemModel16endInsertColumnsEv
 _ZTVN10__cxxabiv117__class_type_infoE
 _ZN9QFileInfoC1ERKS_
 _ZN8QLibrary16staticMetaObjectE
 _ZN19QAbstractFileEngine12endEntryListEv
 _ZN27QAbstractFileEngineIteratorD0Ev
 _ZN8QProcess19setWorkingDirectoryERK7QString
 _ZN9QInternal17activateCallbacksENS_8CallbackEPPv
 _ZN8QVariantC1ERK5QRect
 _ZN7QRegExp6escapeERK7QString
 _ZNK5QFile3posEv
 _ZN14QObjectPrivateD2Ev
 _ZN7QBufferD2Ev
 _ZN13QFontLaoCodecD2Ev
 _ZN13QMetaPropertyC1Ev
 _ZTI9QIODevice
 _Z5flushR11QTextStream
 _ZN4QDiraSERK7QString
 _ZN16QCoreApplication16hasPendingEventsEv
 _ZN9QSettingsC2EP7QObject
 _ZN18QAbstractItemModel9fetchMoreERK11QModelIndex
 _ZNK9QFileInfo7cachingEv
 _ZN6QTimerC1EP7QObject
 _ZTI7QBuffer
 _ZTV23QCoreApplicationPrivate
 _ZN8QVariantC2ERK5QRect
 _ZN6QTimerD2Ev
 _Z15qAddPostRoutinePFvvE
 _ZTV13QSignalMapper
 fileno
 _ZN10QEventLoopD0Ev
 _ZN14QTemporaryFile15setFileTemplateERK7QString
 _ZNK11QMetaObject13indexOfMethodEPKc
 _ZNK4QDir12absolutePathEv
 _ZNK4QUrlltERKS_
 _ZN10QEventLoop4exitEi
 closedir
 _ZN11QTextStream8setCodecEP10QTextCodec
 _ZN27QDynamicPropertyChangeEventD2Ev
 _ZNK7QLocale7toFloatERK7QStringPb
 _ZN7QThread10initializeEv
 _ZN16QTextCodecPluginD0Ev
 _ZN14QReadWriteLock12lockForWriteEv
 _ZNK10QByteArray13leftJustifiedEicb
 _ZlsR11QDataStreamN8QVariant4TypeE
 stderr
 _ZN14QMetaCallEventD0Ev
 _ZN8QProcess15waitForFinishedEi
 _ZN9QSettings15beginWriteArrayERK7QStringi
 _ZN20QEventDispatcherUNIX24setSocketNotifierPendingEP15QSocketNotifier
 _ZNK4QUrl12hasQueryItemERK7QString
 _ZTV12QDirIterator
 _ZTS23QCoreApplicationPrivate
 _ZN5QDateC2Eiii
 _Z15qt_error_stringi
 _ZN8QVariantC2ERK6QRectF
 _ZN8QProcess4killEv
 _ZN11QTranslator4loadERK7QStringS2_S2_S2_
 _ZN9QMimeData7setUrlsERK5QListI4QUrlE
 _ZNK8QVariant6toListEv
 _ZN20QEventDispatcherGlibC2ER27QEventDispatcherGlibPrivateP7QObject
 _ZNK9QFileInfo5isDirEv
 _ZN4QDir9separatorEv
 _ZN9QListData7prependEv
 _ZN9QMetaType23registerStreamOperatorsEPKcPFvR11QDataStreamPKvEPFvS3_PvE
 _ZN8QLibrary6unloadEv
 _ZrsR11QDataStreamR5QSize
 _ZN4QUrl15setEncodedQueryERK10QByteArray
 _ZNK7QString7toFloatEPb
 _ZN7QBuffer7setDataERK10QByteArray
 _ZN9QSettingsC2ERK7QStringNS_6FormatEP7QObject
 _ZNK10QByteArray5countERKS_
 _ZNK7QString7sectionERKS_ii6QFlagsINS_11SectionFlagEE
 _ZN19QAbstractFileEngine7setSizeEx
 _ZN25QAbstractItemModelPrivate5resetEv
 _ZN13QSignalMapper6mappedEi
 _ZN13QSignalMapper6mappedERK7QString
 _ZN25QPersistentModelIndexData6createERK11QModelIndex
 _ZN5QFile16staticMetaObjectE
 _ZNK4QUrl4hostEv
 _ZN16QCoreApplication15applicationNameEv
 _ZNK7QString4leftEi
 _ZNK7QObject5childEPKcS1_b
 _ZN16QIODevicePrivateD0Ev
 _ZN7QThreadC1EP7QObject
 _ZrsR11QDataStreamR5QUuid
 _ZN10QTextCodec17setCodecForLocaleEPS_
 _ZNK9QSettings10isWritableEv
 _ZN18QAbstractItemModel18beginInsertColumnsERK11QModelIndexii
 select
 _ZN13QPluginLoaderD2Ev
 qt_global_mutexpool
 _ZNK4QUrl8toStringE6QFlagsINS_16FormattingOptionEE
 _ZNK13QFontLaoCodec7mibEnumEv
 _ZTV6QEvent
 _ZN14QTemporaryFileC2ERK7QStringP7QObject
 _ZNK5QDate11daysInMonthEv
 inotify_add_watch
 _ZN16QCoreApplicationC2ERiPPc
 _Z6centerR11QTextStream
 _ZN9QIODeviceC2Ev
 _ZTS19QAbstractTableModel
 _ZN10QByteArray11shared_nullE
 _Z8qReallocPvj
 _ZNK18QAbstractItemModel12canFetchMoreERK11QModelIndex
 _ZN16QCoreApplication11aboutToQuitEv
 _ZNK10QByteArray10toLongLongEPbi
 _ZN9QBitArray4fillEbii
 _ZN11QTextStreamD2Ev
 _ZNK7QLocale11toULongLongERK7QStringPbi
 _ZN4QDir13addSearchPathERK7QStringS2_
 _ZN18QAbstractListModelC2EP7QObject
 _ZN8QMapData10createDataEv
 _ZN8QLibraryC2EP7QObject
 _ZN9QIODeviceD2Ev
 _ZNK10QSemaphore9availableEv
 _ZN21QObjectCleanupHandler16staticMetaObjectE
 _ZN5QTime6setHMSEiiii
 getenv
 _ZNK15QDateTimeParser14sectionMaxSizeENS_7SectionEi
 _ZNK5QTime7isValidEv
 _ZNK9QFileInfo12lastModifiedEv
 _ZN11QTextStreamC2Ev
 _ZNK4QUrl8resolvedERKS_
 _ZNK16QCoreApplication10metaObjectEv
 _ZNK7QString3midEii
 _ZN9QResource18unregisterResourceEPKhRK7QString
 _ZNK6QRectFanERKS_
 _ZN11QDataStream10writeBytesEPKcj
 _ZNK18QFileSystemWatcher11directoriesEv
 _Z12noforcepointR11QTextStream
 _ZN11QTextStream9setStringEP7QString6QFlagsIN9QIODevice12OpenModeFlagEE
 _ZN7QObjectC1EPS_PKc
 _ZNK7QString6toUcs4Ev
 _ZN25QAbstractItemModelPrivate21rowsAboutToBeInsertedERK11QModelIndexii
 _ZN4QUrl11fromEncodedERK10QByteArray
 _Zls6QDebugRK21QPersistentModelIndex
 _ZN8QMapData11node_deleteEPPNS_4NodeEiS1_
 __errno_location
 _ZN10QTextCodec11codecForMibEi
 _ZN13QSignalMapper3mapEP7QObject
 _ZNK10QByteArray10startsWithERKS_
 _ZN11QTranslatorC2EP7QObjectPKc
 _ZN4QDir4cdUpEv
 _ZN11QTsciiCodecD0Ev
 _ZNK7QString5countE5QCharN2Qt15CaseSensitivityE
 _ZN9QDateTime9setTime_tEj
 _ZNK10QEventLoop10metaObjectEv
 _ZlsR11QDataStreamRK5QTime
 _ZN9QDateTimeC2ERK5QDate
 _ZN8QVariant10typeToNameENS_4TypeE
 _ZNK5QTime8toStringEN2Qt10DateFormatE
 _ZNK4QDir11nameFiltersEv
 _ZN9QSettingsD0Ev
 _ZN7QObject9destroyedEPS_
 _ZN7QObjectC2EPS_PKc
 _ZN7QThread5startENS_8PriorityE
 _ZN4QUrlC1Ev
 _ZN11QThreadDataD2Ev
 _ZNK7QString13latin1_helperEv
 _ZN14QLocalePrivate19updateSystemPrivateEv
 _ZN20QEventDispatcherUNIX9interruptEv
 _ZNK9QTimeLine8durationEv
 _ZN7QString6removeEii
 _ZNK18QAbstractItemModel10encodeDataERK5QListI11QModelIndexER11QDataStream
 _Z15lowercasedigitsR11QTextStream
 _ZN7QLocaleC2Ev
 _ZNK7QRegExp11lastIndexInERK7QStringiNS_9CaretModeE
 _ZN4QUrlD1Ev
 _ZN11QDataStreamC2EP10QByteArrayi
 _ZN16QCoreApplication16removeTranslatorEP11QTranslator
 _ZNK4QDir7sortingEv
 _ZN18QFileSystemWatcherD0Ev
 _ZN8QProcess8finishedEiNS_10ExitStatusE
 _ZNK10QByteArray7indexOfERKS_i
 _ZNK9QMetaEnum11keysToValueEPKc
 _ZN16QCoreApplication6notifyEP7QObjectP6QEvent
 _ZN10QTextCodecD0Ev
 _ZN6QMutex4lockEv
 _ZN5QDate10fromStringERK7QStringN2Qt10DateFormatE
 _ZN16QCoreApplication21setOrganizationDomainERK7QString
 _ZThn8_NK16QTextCodecPlugin4keysEv
 _ZN9QDateTimeC1ERK5QDate
 _ZN13QPluginLoader8instanceEv
 _ZN5QUuidC1ERK7QString
 _ZNK21QPersistentModelIndex6columnEv
 _ZlsR11QDataStreamRK9QBitArray
 _ZN4QDirC1ERKS_
 _ZN15QSocketNotifierC1EiNS_4TypeEP7QObjectPKc
 _ZN11QDataStreamD0Ev
 _ZN9QFileInfo6detachEv
 _ZTS11QTsciiCodec
 _ZN25QAbstractItemModelPrivate14columnsRemovedERK11QModelIndexii
 pthread_attr_setschedparam
 _ZNK7QLocale8toUShortERK7QStringPbi
 _ZNK8QProcess12bytesToWriteEv
 _ZrsR11QDataStreamR5QRect
 pthread_attr_getschedpolicy
 _ZN5QFile6existsERK7QString
 pthread_cond_destroy
 _ZN10QByteArray7fromHexERKS_
 _ZN9QSettings14beginReadArrayERK7QString
 pthread_key_create
 _ZN20QEventDispatcherUNIX16hasPendingEventsEv
 _ZN7QObject10disconnectEPKS_PKcS1_S3_
 _ZNK11QTextStream3posEv
 _ZN8QVariant7handlerE
 _ZTI14QMetaCallEvent
 _ZNK12QDirIterator8fileNameEv
 _ZNK11QTranslator9translateEPKcS1_S1_i
 _ZNK13QMetaProperty10isWritableEv
 _ZN7QObject7connectEPKS_PKcS1_S3_N2Qt14ConnectionTypeE
 _ZTV21QObjectCleanupHandler
 _ZNK8QVariant8typeNameEv
 _ZN14QReadWriteLock15tryLockForWriteEv
 _ZNK27QAbstractFileEngineIterator15currentFilePathEv
 _ZNK10QTextCodec9toUnicodeERK10QByteArrayi
 _ZN10QByteArrayC2EPKci
 _ZNK15QDateTimeParser11absoluteMinEi
 _ZN11QTextStreamC1EP8_IO_FILE6QFlagsIN9QIODevice12OpenModeFlagEE
 _ZNK15QDateTimeParser14potentialValueERK7QStringiiiRK8QVarianti
 _init
 _ZN10QByteArray7replaceEcRKS_
 _ZN11QTranslatorD2Ev
 _ZNK10QTextCodec9canEncodeE5QChar
 _Z6qFatalPKcz
 _ZN16QCoreApplicationC1ERiPPc
 _ZN27QEventDispatcherGlibPrivateC2EP13_GMainContext
 fstatfs
 _ZN4QUrl19fromPercentEncodingERK10QByteArray
 _ZN5QFile4openEP8_IO_FILE6QFlagsIN9QIODevice12OpenModeFlagEE
 _ZN4QUrlC1ERK7QString
 _ZN7QObject18installEventFilterEPS_
 _Znaj
 getgrgid_r
 _ZNK13QFSFileEngine9fileFlagsE6QFlagsIN19QAbstractFileEngine8FileFlagEE
 _ZNK15QSocketNotifier10metaObjectEv
 _ZNK20QEventDispatcherGlib10metaObjectEv
 _ZNK21QObjectCleanupHandler10metaObjectEv
 g_main_context_pending
 _ZN8QLibraryC1ERK7QStringP7QObject
 _ZrsR11QDataStreamR4QUrl
 _ZNK10QTextCodec9toUnicodeEPKc
 _ZN15QSocketNotifierD1Ev
 _ZN8QProcess5startERK7QStringRK11QStringList6QFlagsIN9QIODevice12OpenModeFlagEE
 _ZN7QBufferC1EP10QByteArrayP7QObject
 _ZNK7QBuffer6bufferEv
 _ZN11QTranslatorC1EP7QObjectPKc
 _ZN7QThread16staticMetaObjectE
 _ZN4QUrl11setPasswordERK7QString
 _ZN7QObject16staticMetaObjectE
 _ZN9QMetaType4saveER11QDataStreamiPKv
 _ZNK7QString10startsWithERKS_N2Qt15CaseSensitivityE
 memmove
 _ZN24QAbstractEventDispatcher11closingDownEv
 _ZNK9QFileInfo4pathEv
 _ZN8QProcess20readAllStandardErrorEv
 _ZN5QDate7isValidEiii
 _ZN16QCoreApplication5flushEv
 _ZN7QLocale20countriesForLanguageENS_8LanguageE
 _ZN9QConfFileC2ERK7QStringb
 _ZTI23QCoreApplicationPrivate
 _ZNK5QDate7isValidEv
 _ZN14QWaitCondition4waitEP6QMutexm
 _ZNK4QDir6mkpathERK7QString
 _ZN4QUrl6setUrlERK7QStringNS_11ParsingModeE
 _ZN9QResource16registerResourceEPKhRK7QString
 _ZN9QTimeLineD0Ev
 _ZN12QLibraryInfoC2Ev
 _ZNK8QProcess15readChannelModeEv
 _ZN7QObject10timerEventEP11QTimerEvent
 _ZNK11QTsciiCodec18convertFromUnicodeEPK5QChariPN10QTextCodec14ConverterStateE
 _ZNK4QDir9entryListERK11QStringList6QFlagsINS_6FilterEES3_INS_8SortFlagEE
 _ZNK21QPersistentModelIndex7isValidEv
 _ZN20QEventDispatcherGlibC1ER27QEventDispatcherGlibPrivateP7QObject
 _ZN17QByteArrayMatcherD1Ev
 _ZN7QString6numberEii
 _ZN9QSettingsC2ERK7QStringS2_P7QObject
 _ZNK5QDate8toStringERK7QString
 _ZNK10QByteArray14rightJustifiedEicb
 _ZN15QDateTimeParser11parseFormatERK7QString
 _ZN7QRegExp11errorStringEv
 _ZNK7QStringltERKS_
 _ZN18QAbstractItemModel13insertColumnsEiiRK11QModelIndex
 _ZN6QTimer4stopEv
 _ZNK8QVariant8toDoubleEPb
 _ZN14QReadWriteLock15tryLockForWriteEi
 _Z9qCriticalPKcz
 _ZN9QTimeLine8finishedEv
 _ZN10QEventLoopC2EP7QObject
 _ZN17QByteArrayMatcherC1Ev
 _ZN18QFileSystemWatcherC2EP7QObject
 _Zls6QDebug6QFlagsIN4QDir6FilterEE
 _ZTV12QCustomEvent
 _ZN15QObjectUserDataD1Ev
 _ZNK4QUrl4portEv
 _ZN16QTextCodecPlugin16staticMetaObjectE
 _ZN7QThreadC2EP7QObject
 _ZNK9QMimeData8hasImageEv
 _ZN11QThreadDataC2Ei
 _ZN18QCryptographicHash4hashERK10QByteArrayNS_9AlgorithmE
 _ZNK9QFileInfo10isReadableEv
 _ZTV16QTextCodecPlugin
 _ZN20QEventDispatcherGlib13processEventsE6QFlagsIN10QEventLoop17ProcessEventsFlagEE
 _Zls6QDebugRK5QRect
 _ZThn8_N16QTextCodecPlugin6createERK7QString
 _ZNK13QFSFileEngine12isSequentialEv
 _ZN9QSettingsC1ERK7QStringNS_6FormatEP7QObject
 _ZNK11QTextStream18realNumberNotationEv
 isspace
 _ZN4QUrl11setUserInfoERK7QString
 _ZN13QFSFileEngineC1Ev
 _ZNK11QMetaMethod6accessEv
 _ZN9QResource13addSearchPathERK7QString
 _ZN7QRegExpaSERKS_
 _ZN20QEventDispatcherUNIX14activateTimersEv
 _ZTS26QAbstractFileEngineHandler
 _ZNK4QUrlneERKS_
 _ZN27QEventDispatcherUNIXPrivateC2Ev
 getpwuid_r
 _ZNK13QMetaProperty8typeNameEv
 _ZNK9QResource12isCompressedEv
 _ZN13QFSFileEngineD1Ev
 _ZN13QSystemLocaleD2Ev
 _ZN18QAbstractItemModel4sortEiN2Qt9SortOrderE
 _ZN21QObjectCleanupHandlerD2Ev
 _Z9qsnprintfPcjPKcz
 _ZN6QTimerC2EP7QObjectPKc
 _ZN24QAbstractEventDispatcher16staticMetaObjectE
 _ZNK11QMetaObject11indexOfSlotEPKc
 _ZN27QEventDispatcherUNIXPrivateD2Ev
 _ZN5QFile5closeEv
 _Z5qHashRK9QBitArray
 _ZN7QThread13currentThreadEv
 _ZN5QTimeC1Eiiii
 _ZN14QStringMatcher10setPatternERK7QString
 _ZNK13QMetaProperty10isFlagTypeEv
 _ZN13QSystemLocaleC2Ev
 _ZN10QByteArray7replaceERKS_S1_
 _ZN7QThread8finishedEv
 _ZNK18QAbstractItemModel11hasChildrenERK11QModelIndex
 _ZN21QObjectCleanupHandlerC2Ev
 _ZNK9QIODevice11errorStringEv
 _ZN7QThread16idealThreadCountEv
 _ZNK10QEventLoop9isRunningEv
 _ZN11QTextStreamlsEPKv
 _ZrsR11QDataStreamR7QString
 _ZN18QAbstractListModel12dropMimeDataEPK9QMimeDataN2Qt10DropActionEiiRK11QModelIndex
 _ZTV11QTsciiCodec
 _ZN9QtPrivate20QStringList_containsEPK11QStringListRK7QStringN2Qt15CaseSensitivityE
 _ZNK13QMetaProperty8userTypeEv
 _ZN20QEventDispatcherUNIX22registerSocketNotifierEP15QSocketNotifier
 _ZN27QEventDispatcherUNIXPrivate8doSelectE6QFlagsIN10QEventLoop17ProcessEventsFlagEEP7timeval
 _Z13qErrnoWarningiPKcz
 __udivdi3
 _ZN6QTimerC1EP7QObjectPKc
 _ZNK5QChar8isNumberEv
 _ZN8QVariantC1ERK5QChar
 _ZN9QIODevice19waitForBytesWrittenEi
 _ZN14QMetaCallEventC1EiPK7QObjectiiiPiPPvP10QSemaphore
 _ZN16QCoreApplication9translateEPKcS1_S1_NS_8EncodingE
 _ZN13QFSFileEngine9extensionEN19QAbstractFileEngine9ExtensionEPKNS0_15ExtensionOptionEPNS0_15ExtensionReturnE
 inotify_init
 _ZNK4QDir9entryListE6QFlagsINS_6FilterEES0_INS_8SortFlagEE
 _ZN18QAbstractItemModel18beginRemoveColumnsERK11QModelIndexii
 _ZN23QCoreApplicationPrivateC2ERiPPc
 _ZNK9QFileInfo14completeSuffixEv
 _ZN27QAbstractFileEngineIteratorD1Ev
 _ZN16QCoreApplication18organizationDomainEv
 _ZNK7QString7compareERKS_N2Qt15CaseSensitivityE
 _ZN7QObject13setObjectNameERK7QString
 _ZNK9QFileInfo8isHiddenEv
 _ZNK8QProcess11readChannelEv
 _ZTV6QTimer
 _ZN11QTextStream14skipWhiteSpaceEv
 _ZNK5QRectorERKS_
 _ZN7QBufferD1Ev
 _ZN13QFontLaoCodecD1Ev
 _ZNK18QAbstractItemModel20supportedDragActionsEv
 _ZTI6QEvent
 _ZN8QLibrary12setLoadHintsE6QFlagsINS_8LoadHintEE
 _ZN8QVariantD2Ev
 _ZNK11QTsciiCodec16convertToUnicodeEPKciPN10QTextCodec14ConverterStateE
 _ZTV26QTextCodecFactoryInterface
 _ZNK6QTimer10metaObjectEv
 _ZN13QSignalMapper3mapEv
 _ZNK5QChar7joiningEv
 _ZNK7QString8toLatin1Ev
 _ZNK13QSignalMapper7mappingEP7QObject
 _ZN7QString6setNumEdci
 __cxa_guard_acquire
 _ZN9QResource11searchPathsEv
 _ZN10QEventLoopD1Ev
 _ZlsR11QDataStreamRK8QVariant
 _Z16qInstallPathBinsv
 _ZNK8QProcess5errorEv
 _ZN8QVariantC2Ex
 _ZN16QTextCodecPluginD1Ev
 _ZN14QFactoryLoaderD2Ev
 _ZN18QAbstractListModel11qt_metacallEN11QMetaObject4CallEiPPv
 _ZN8QProcess5closeEv
 _ZN8QVariantC2Ey
 _ZNK4QUrl18queryPairDelimiterEv
 _ZN9QSettingsC2ENS_6FormatENS_5ScopeERK7QStringS4_P7QObject
 _ZN8QVariantC2ERK5QChar
 _ZN21QPersistentModelIndexC2ERKS_
 _ZN5QFileD1Ev
 _ZNK9QSettings5valueERK7QStringRK8QVariant
 _ZN11QDataStream11skipRawDataEi
 _ZN5QRect10moveCenterERK6QPoint
 _ZNK9QResource7isValidEv
 _ZNK8QVariant7toRectFEv
 _ZN8QProcess24setStandardOutputProcessEPS_
 _ZNK8QVariant7toPointEv
 _ZN11QTextStreamlsEPKc
 _ZNK8QVariant6toRectEv
 _Z11qt_assert_xPKcS0_S0_i
 _ZNK4QUrl4portEi
 _ZNK15QDateTimeParser12parseSectionERK8QVariantiR7QStringiRNS_5StateEPi
 _ZN5QFileC1Ev
 _ZN10QByteArray6appendERKS_
 _ZTS12QDirIterator
 _ZNK11QMetaObject15indexOfPropertyEPKc
 _Zls6QDebugRK4QDir
 _ZN9QtPrivate19QStringList_indexOfEPK11QStringListRK7QRegExpi
 qt_allTopLevelWidgets
 _ZN9QTimeLine12valueChangedEd
 _ZN11QMetaObject19normalizedSignatureEPKc
 _ZN5QUuidC1EPKc
 _ZN8QLibrary11qt_metacallEN11QMetaObject4CallEiPPv
 _ZN9QSettings5eventEP6QEvent
 _ZTV27QEventDispatcherUNIXPrivate
 _ZN6QTimer16staticMetaObjectE
 _ZN18QAbstractItemModel11qt_metacastEPKc
 abort
 _ZN11QTranslator11qt_metacastEPKc
 _ZNK18QAbstractItemModel8hasIndexEiiRK11QModelIndex
 _ZNK10QByteArray10simplifiedEv
 __pthread_unregister_cancel
 _ZNK7QLocale8languageEv
 _ZTI27QEventDispatcherGlibPrivate
 _ZN13QFSFileEngine5closeEv
 _ZN7QBuffer16staticMetaObjectE
 _ZNK10QByteArray11toULongLongEPbi
 _ZN10QByteArray4fillEci
 _ZN9QMimeData12setColorDataERK8QVariant
 _ZN13QFSFileEngine4seekEx
 _ZN8QVariantC2Eb
 _ZN9QDateTimeC2ERKS_
 _ZNK9QTimeLine5stateEv
 _ZN8QVariantC2Ed
 _ZN9QTimeLine6resumeEv
 _ZNK19QAbstractFileEngine5mkdirERK7QStringb
 _ZN7QObject13connectNotifyEPKc
 _ZN19QAbstractFileEngine5closeEv
 _ZNK10QByteArray7toLowerEv
 _ZNK7QThread10isFinishedEv
 _ZN11QTextStreamD1Ev
 _ZN8QVariantC2Ei
 _ZN16QTextCodecPlugin11qt_metacastEPKc
 _ZN13QPluginLoader11setFileNameERK7QString
 _ZN8QVariantC2Ej
 _ZN11QTextStream7readAllEv
 _ZrsR11QDataStreamR7QLocale
 _ZN9QDateTime7setTimeERK5QTime
 _ZN4QDir12makeAbsoluteEv
 _ZN21QObjectCleanupHandler3addEP7QObject
 _ZN4QUrl5clearEv
 _ZN10QByteArray6insertEiRKS_
 _ZNK10QTextCodec9toUnicodeERK10QByteArray
 _ZN13QSignalMapperC2EP7QObjectPKc
 _ZN11QTextStreamC1Ev
 _ZNK19QAbstractFileEngine4sizeEv
 _ZN9QListData6removeEii
 _ZTS5QFile
 _ZNK4QDir5mkdirERK7QString
 _ZN5QDate11longDayNameEi
 _ZNK9QDateTime8toStringERK7QString
 pthread_attr_init
 _Z19qInstallPathSysconfv
 _ZTS6QTimer
 _ZNK11QMetaMethod14parameterNamesEv
 _ZNK7QLocale8toStringEdci
 _ZN8QLibrary7resolveERK7QStringiPKc
 _ZNK18QAbstractItemModel5flagsERK11QModelIndex
 _ZrsR11QDataStreamR7QRegExp
 _ZNK5QTime7msecsToERKS_
 _ZN13QPluginLoaderC1EP7QObject
 _ZN14QFactoryLoader11qt_metacastEPKc
 _ZNK14QTemporaryFile10metaObjectEv
 _ZN18QAbstractItemModel21changePersistentIndexERK11QModelIndexS2_
 _ZN7QString7replaceEii5QChar
 _ZN4QDir21addResourceSearchPathERK7QString
 _ZN25QAbstractItemModelPrivate15columnsInsertedERK11QModelIndexii
 _Z3binR11QTextStream
 _ZN5QChar12toCaseFoldedEj
 _ZN9QIODevice5closeEv
 _ZN9QMimeData7setTextERK7QString
 pthread_testcancel
 _ZN11QTsciiCodecD1Ev
 _ZNK5QUuidgtERKS_
 _ZN13QSignalMapperC1EP7QObjectPKc
 _ZN5QFile4linkERK7QStringS2_
 _ZN7QObject5eventEP6QEvent
 _ZN11QMetaObject14normalizedTypeEPKc
 _Z4qInfv
 _ZNK19QAbstractFileEngine5rmdirERK7QStringb
 _ZNK15QDateTimeParser11sectionNameEi
 _ZN7QBufferC1EP7QObject
 _ZN16QCoreApplication18removePostedEventsEP7QObjecti
 _ZNK4QUrl18allQueryItemValuesERK7QString
 _ZN7QString6appendERK13QLatin1String
 _ZTI15QDateTimeParser
 _ZNK7QString7indexOfERKS_iN2Qt15CaseSensitivityE
 _ZTS15QObjectUserData
 _ZNK9QDateTime7isValidEv
 _ZN9QInternal12callFunctionENS_16InternalFunctionEPPv
 _ZN20QEventDispatcherUNIXC1ER27QEventDispatcherUNIXPrivateP7QObject
 _ZNK6QLineF5angleERKS_
 _ZN11QTextStream4readEx
 _ZN4QDirC2ERK7QStringS2_6QFlagsINS_8SortFlagEES3_INS_6FilterEE
 _ZN5QFileC1ERK7QString
 _ZN20QEventDispatcherUNIXC2EP7QObject
 _ZN18QAbstractItemModel13layoutChangedEv
 __pthread_unwind_next
 _ZN5QFile4copyERK7QStringS2_
 _ZNK10QByteArray7trimmedEv
 _ZNK5QFile6handleEv
 _ZN18QFileSystemWatcherC1EP7QObject
 _ZNK9QSettings5groupEv
 _ZNK7QLocale12decimalPointEv
 _ZNK5QTime6secsToERKS_
 _ZN9QIODevice11setOpenModeE6QFlagsINS_12OpenModeFlagEE
 _ZN17QByteArrayMatcheraSERKS_
 _ZN7QBuffer9writeDataEPKcx
 _ZNK5QFile5errorEv
 _ZN9QConfFile10clearCacheEv
 _ZNK10QByteArray6toUIntEPbi
 _ZN7QRegExp3posEi
 _ZNK8QLibrary9loadHintsEv
 _ZN13QFSFileEngine11setFileNameERK7QString
 _ZN9QDateTime11setTimeSpecEN2Qt8TimeSpecE
 _ZN18QFileSystemWatcherD1Ev
 _ZN8QProcess14setEnvironmentERK11QStringList
 __xstat64
 _ZNK15QDateTimeParser11sectionTextERK7QStringii
 _ZNK4QUrl11hasFragmentEv
 _ZNK9QIODevice3posEv
 _ZN10QByteArray6numberEdci
 _ZN8QVariant12castOrDetachENS_4TypeE
 _Z2wsR11QTextStream
 _ZNK5QRect10intersectsERKS_
 _ZN9QMimeDataD0Ev
 _Z5qSNaNv
 _ZN26QAbstractFileEngineHandlerD0Ev
 _ZN14QObjectPrivate13isValidObjectEP7QObject
 _ZNK6QLineF6isNullEv
 pthread_cond_wait
 _ZN14QMetaCallEventC2EiPK7QObjectiiiPiPPvP10QSemaphore
 _ZN7QObjectC1EPS_
 sched_get_priority_max
 _Z8qMemCopyPvPKvj
 strerror_r
 _ZN11QDataStreamD1Ev
 _ZN8QMapData16continueFreeDataEi
 _ZlsR11QDataStreamRK7QString
 _ZN14QReadWriteLockC2Ev
 _ZNK5QChar7isPrintEv
 _Zls6QDebugN8QVariant4TypeE
 _ZN9QIODevice9ungetCharEc
 _ZTS15QSocketNotifier
 _ZNK5QChar8isLetterEv
 _ZN14QMetaCallEventC2EiPK7QObjectiPiPPvP10QSemaphore
 _ZNK4QDirixEi
 _ZNK4QDir5rmdirERK7QString
 _ZNK14QObjectPrivate12receiverListEPKc
 _Z5qHashRK10QStringRef
 __gmon_start__
 _ZNK13QMetaProperty5writeEP7QObjectRK8QVariant
 _ZN6QEventD0Ev
 _ZNK7QString11toULongLongEPbi
 _ZN7QObject12blockSignalsEb
 pthread_cond_signal
 _ZNK15QDateTimeParser11sectionNodeEi
 acos
 _ZN11QDataStreamC1Ev
 _ZN14QReadWriteLockD2Ev
 _Z17qt_message_output9QtMsgTypePKc
 compress2
 _ZN8QProcess14setReadChannelENS_14ProcessChannelE
 _ZNK9QTimeLine12valueForTimeEi
 _ZN24QAbstractEventDispatcher14setEventFilterEPFbPvE
 _ZNK4QUrl12encodedQueryEv
 _ZN7QString7replaceE5QCharS0_N2Qt15CaseSensitivityE
 _ZNK4QDir6filterEv
 _ZNK13QFontLaoCodec18convertFromUnicodeEPK5QChariPN10QTextCodec14ConverterStateE
 _ZNK5QFile11permissionsEv
 _ZNK15QDateTimeParser11absoluteMaxEiRK9QDateTime
 _ZNK27QAbstractFileEngineIterator4pathEv
 _ZrsR11QDataStreamR8QVariant
 _ZN13QSignalMapper10setMappingEP7QObjecti
 _ZN11QTextStream14setNumberFlagsE6QFlagsINS_10NumberFlagEE
 _ZN18QAbstractItemModel12rowsInsertedERK11QModelIndexii
 _ZN6QTimer11qt_metacallEN11QMetaObject4CallEiPPv
 _ZN4QDir8homePathEv
 _ZN19QAbstractTableModelD2Ev
 _ZNK4QDir13canonicalPathEv
 _ZNK7QString8endsWithERK13QLatin1StringN2Qt15CaseSensitivityE
 _ZNK7QString3argE5QChariRKS0_
 _Z9qIsFinited
 _ZNK5QRectanERKS_
 _ZTS16QCoreApplication
 _Z9qIsFinitef
 _ZNK8QProcess3pidEv
 _ZN8QProcess11qt_metacallEN11QMetaObject4CallEiPPv
 _ZN11QVectorData6mallocEiiiPS_
 _ZN24QAbstractEventDispatcher12aboutToBlockEv
 _ZN23QCoreApplicationPrivateD2Ev
 _ZTI25QAbstractItemModelPrivate
 _ZN5QDate11currentDateEv
 _ZNK9QFileInfo8lastReadEv
 _ZNK9QTimeLine12frameForTimeEi
 _ZNK11QMetaMethod10attributesEv
 _ZNK14QTemporaryFile10fileEngineEv
 _Z5qdtoadiiPiS_PPcS1_
 ftello64
 _ZNK13QMetaProperty12isScriptableEPK7QObject
 _ZrsR11QDataStreamRN8QVariant4TypeE
 _ZN11QTranslator11qt_metacallEN11QMetaObject4CallEiPPv
 _ZN8QLibraryC2ERK7QStringP7QObject
 _Z9qstrnicmpPKcS0_j
 _ZN9QFileInfoC2ERK4QDirRK7QString
 _ZN25QAbstractItemModelPrivate23columnsAboutToBeRemovedERK11QModelIndexii
 _ZN18QAbstractItemModel13endRemoveRowsEv
 inotify_rm_watch
 _ZN8QProcess7executeERK7QString
 _ZNK4QDir10nameFilterEv
 _ZN7QString7replaceEiiRKS_
 _ZNK16QTextCodecPlugin4keysEv
 _ZN16QCoreApplication4exitEi
 _ZNK21QPersistentModelIndexneERK11QModelIndex
 _ZTI6QTimer
 _ZN10QEventLoop4quitEv
 stdin
 _ZN13QSignalMapper10setMappingEP7QObjectP7QWidget
 _ZN8QVariantC1ERK10QByteArray
 _ZdaPv
 _ZN13QSignalMapper14removeMappingsEP7QObject
 _ZNK21QPersistentModelIndex4dataEi
 _ZN18QAbstractItemModel11rowsRemovedERK11QModelIndexii
 g_main_context_default
 _ZNK10QByteArray5toIntEPbi
 _ZlsR11QDataStreamRK9QDateTime
 _ZN18QAbstractListModel16staticMetaObjectE
 _ZNK7QLocale11exponentialEv
 _ZN8QVariantC2ERK10QByteArray
 _ZN17QByteArrayMatcherD2Ev
 _ZN11QMetaObject7connectEPK7QObjectiS2_iiPi
 _ZN5QFile10encodeNameERK7QString
 _ZN9QIODevice11resetStatusEv
 _ZN8QLibraryD2Ev
 _ZNK13QFSFileEngine8fileNameEN19QAbstractFileEngine8FileNameE
 _ZN5QChar12toCaseFoldedEt
 _ZNK4QUrl10queryItemsEv
 _ZN9QIODevice12readLineDataEPcx
 _ZN9QIODeviceC2ER16QIODevicePrivateP7QObject
 _ZN16QCoreApplication9translateEPKcS1_S1_NS_8EncodingEi
 _Z4endlR11QTextStream
 _ZN7QLocaleC2ENS_8LanguageENS_7CountryE
 _ZN7QString4nullE
 _ZN17QByteArrayMatcherC2Ev
 _ZN24QAbstractEventDispatcher11filterEventEPv
 _ZN8QLibrary4loadEv
 _ZN8QVariantC2ERK13QLatin1String
 _ZN15QObjectUserDataD0Ev
 _ZNK9QMimeData4dataERK7QString
 _ZN14QUnicodeTables10propertiesEj
 _ZN8QVariantC2EiPKv
 _ZN9QSettings14registerFormatERK7QStringPFbR9QIODeviceR4QMapIS0_8QVariantEEPFbS4_RKS7_EN2Qt15CaseSensitivityE
 _Z16qInstallPathDocsv
 _ZN19QAbstractTableModelC1EP7QObject
 _ZN6QMutexC2ENS_13RecursionModeE
 _ZNK5QChar12toCaseFoldedEv
 _ZN11QMetaObject8activateEP7QObjectiiPPv
 _ZN24QAbstractEventDispatcherC1EP7QObject
 _ZN11QTextStreamlsERK10QByteArray
 sched_get_priority_min
 _ZNK5QFile4sizeEv
 _ZNK7QString6toUIntEPbi
 _ZN7QObject10startTimerEi
 munmap
 _ZNK8QVariant4saveER11QDataStream
 _ZN4QUrl6detachEv
 _ZNK13QFSFileEngine13caseSensitiveEv
 _Z5qFreePv
 _ZN9QFileInfoC1Ev
 _ZrsR11QDataStreamR9QDateTime
 _ZNK13QSignalMapper7mappingEi
 _ZlsR11QDataStreamRK6QRectF
 _ZTV14QObjectPrivate
 _ZN13QFSFileEngineC2Ev
 _ZN9QMetaType9constructEiPKv
 _ZN11QTextStream14setIntegerBaseEi
 _ZN24QAbstractEventDispatcher13registerTimerEiP7QObject
 _ZN19QAbstractFileEngine9extensionENS_9ExtensionEPKNS_15ExtensionOptionEPNS_15ExtensionReturnE
 _ZNK13QMetaProperty4typeEv
 _ZN7QThread7startedEv
 _Zls6QDebugRK5QDate
 _ZN9QFileInfoD1Ev
 _ZN5QDate17julianToGregorianEjRiS0_S0_
 _ZN7QObject10childEventEP11QChildEvent
 _ZNK19QAbstractFileEngine11errorStringEv
 _Z7qMemSetPvij
 _ZN13QFSFileEngineD2Ev
 _ZN14QStringMatcherC1ERKS_
 _ZNK7QLocale8toStringERK5QDateRK7QString
 _ZNK10QByteArray8toUShortEPbi
 _ZNK13QFSFileEngine17supportsExtensionEN19QAbstractFileEngine9ExtensionE
 _ZN11QDataStream11resetStatusEv
 _ZN10QByteArray6appendEc
 _ZN18QAbstractItemModel11qt_metacallEN11QMetaObject4CallEiPPv
 _ZN7QString6setNumEyi
 _Z8qAppNamev
 _ZNK21QPersistentModelIndex5modelEv
 _ZNK13QFSFileEngine6handleEv
 _ZN9QIODevice7getCharEPc
 _ZN4QUrl12fromPunycodeERK10QByteArray
 _ZTV10QEventLoop
 __cxa_finalize
 _ZN18QAbstractItemModelD2Ev
 _ZN4QDir8rootPathEv
 _ZNK8QProcess5atEndEv
 _ZNK9QMimeData7hasHtmlEv
 read
 _ZN4QDir17convertSeparatorsERK7QString
 _ZTI18QAbstractItemModel
 _ZTI14QObjectPrivate
 _ZNK12QDirIterator8filePathEv
 _ZN5QChar7toUpperEj
 _ZN7QString6setNumExi
 _ZN14QUnicodeTables10propertiesEt
 _ZTS7QBuffer
 vsnprintf
 _ZNK7QStringeqERK13QLatin1String
 _ZNK13QSystemLocale14fallbackLocaleEv
 _ZN5QDateC1Eiii
 _Z7qstrdupPKc
 _ZN7QBufferC2EP7QObject
 _ZN11QTranslatorC1EP7QObject
 _ZN13QFontLaoCodecD0Ev
 _ZN7QBufferD0Ev
 pthread_mutex_lock
 _ZNK9QIODevice10metaObjectEv
 _ZN20QEventDispatcherUNIXC2ER27QEventDispatcherUNIXPrivateP7QObject
 _ZN20QEventDispatcherUNIXD2Ev
 _ZN14QObjectPrivate14deleteChildrenEv
 _ZN7QBuffer6bufferEv
 _Znwj
 _ZN8QVariantD1Ev
 _ZNK4QDir10isReadableEv
 _ZN11QTextStreamrsER7QString
 _ZN9QIODevice12aboutToCloseEv
 _Z13qErrnoWarningPKcz
 g_main_context_ref
 g_source_new
 _ZNK7QLocale7toShortERK7QStringPbi
 _ZNK12QDirIterator4pathEv
 _ZN20QEventDispatcherUNIX24unregisterSocketNotifierEP15QSocketNotifier
 _ZN18QFileSystemWatcher8addPathsERK11QStringList
 _ZN9QSettings11qt_metacastEPKc
 _ZN4QDirD2Ev
 _ZN4QUrl11setFileNameERK7QString
 _ZTS14QTemporaryFile
 _ZTI21QObjectCleanupHandler
 _ZNK9QMetaEnum5scopeEv
 _ZTI13QFontLaoCodec
 _ZNK11QMetaObject17indexOfEnumeratorEPKc
 _ZN8QVariantC1Ex
 _ZNK7QBuffer4sizeEv
 _ZN16QTextCodecPluginD2Ev
 _ZTS17QFactoryInterface
 _ZN8QVariantC1Ey
 _ZNK5QDate8toStringEN2Qt10DateFormatE
 _ZN11QDataStream11readRawDataEPci
 _ZN16QCoreApplication5eventEP6QEvent
 _ZNK4QDir8filePathERK7QString
 _Zls6QDebugRK5QLine
 _ZNK10QStringRef8toStringEv
 _ZN5QFileD0Ev
 _ZNK14QObjectPrivate8isSenderEPK7QObjectPKc
 _ZNK4QDir10isRelativeEv
 _ZN11QMetaObject8activateEP7QObjectPKS_iPPv
 isalnum
 _ZN13QPluginLoaderC2ERK7QStringP7QObject
 memset
 _ZN16QCoreApplication9loopLevelEv
 _ZNK7QLocale7dayNameEiNS_10FormatTypeE
 _ZN7QLocale6systemEv
 _ZN15QSocketNotifier16staticMetaObjectE
 _ZNK6QRectF8containsERK7QPointF
 _ZN18QFileSystemWatcher11fileChangedERK7QString
 _ZNK5QFile8fileNameEv
 _ZTI11QTsciiCodec
 _ZN16QCoreApplication15setLibraryPathsERK11QStringList
 fopen64
 _ZNK9QMetaEnum11valueToKeysEi
 _ZN8QProcess19waitForBytesWrittenEi
 lseek64
 _ZN23QCoreApplicationPrivateC1ERiPPc
 _ZNK7QStringeqERKS_
 _ZN9QTimeLine11qt_metacallEN11QMetaObject4CallEiPPv
 _ZN13QFSFileEngine7setSizeEx
 _ZN8QVariantC1ERK7QString
 _ZNK9QResource6localeEv
 fflush
 _ZN16QCoreApplication9exit_loopEv
 mmap
 _ZNK10QByteArray3midEii
 _ZNK5QChar8isSymbolEv
 _ZN19QAbstractFileEngine6renameERK7QString
 _ZNK9QFileInfo7ownerIdEv
 _ZN9QSettings7setPathENS_6FormatENS_5ScopeERK7QString
 _ZN23QCoreApplicationPrivate21createEventDispatcherEv
 _ZN12QDirIteratorC1ERK7QString6QFlagsINS_12IteratorFlagEE
 _ZN13QFSFileEngine4openE6QFlagsIN9QIODevice12OpenModeFlagEE
 _ZNK9QSettings8containsERK7QString
 _ZNK4QUrl9authorityEv
 _ZTV7QThread
 _ZN7QStringC1EPK5QChari
 _ZN8QProcess9terminateEv
 _ZNK11QMetaObject15enumeratorCountEv
 _ZNK11QTextStream14fieldAlignmentEv
 _ZNK10QByteArray5toHexEv
 _ZN5QFile6renameERK7QString
 _ZeoRK9QBitArrayS1_
 _ZNK19QAbstractTableModel11hasChildrenERK11QModelIndex
 _ZNK9QMimeData7hasTextEv
 _ZNK11QMetaObject16enumeratorOffsetEv
 _ZN10QByteArray6insertEic
 _ZNK9QMimeData9colorDataEv
 _ZN21QPersistentModelIndexC2ERK11QModelIndex
 _ZN14QTemporaryFileD0Ev
 _ZN9QtPrivate18QStringList_filterEPK11QStringListRK7QRegExp
 _ZN8QVariantC1Eb
 _ZN10QTextCodec12codecForHtmlERK10QByteArray
 _ZNK14QMetaClassInfo4nameEv
 _ZN12QTextEncoder11fromUnicodeERK7QStringRi
 _ZN7QRegExpD2Ev
 _ZN8QProcess13startDetachedERK7QStringRK11QStringListS2_Px
 _Z20qt_qFindChild_helperPK7QObjectRK7QStringRK11QMetaObject
 _ZN8QVariantC1Ed
 _ZN11QMetaObject8addGuardEPP7QObject
 _ZTI9QTimeLine
 _ZNK21QPersistentModelIndexeqERKS_
 _ZN20QEventDispatcherUNIX16staticMetaObjectE
 stdout
 _ZN11QTimerEventD0Ev
 _ZN11QTextStreamD0Ev
 times
 _ZN8QVariantC1Ei
 _ZN8QVariantC1Ej
 _ZNK4QUrl7isValidEv
 _ZNK9QFileInfo16absoluteFilePathEv
 _Z3bomR11QTextStream
 _ZN9QIODevice11qt_metacastEPKc
 _ZN7QRegExpC2Ev
 pclose
 _ZN27QAbstractFileEngineIterator7setPathERK7QString
 _Z24qGlobalPostedEventsCountv
 _Z12qSharedBuildv
 _ZNK5QChar13decompositionEv
 _ZNK13QFSFileEngine5ownerEN19QAbstractFileEngine9FileOwnerE
 _ZN8QVariant4loadER11QDataStream
 _ZNK9QFileInfo11permissionsEv
 strcoll
 _ZTI20QEventDispatcherUNIX
 _ZN13QFSFileEngine4copyERK7QString
 _ZTV11QChildEvent
 _ZN20QEventDispatcherUNIX16unregisterTimersEP7QObject
 __cxa_pure_virtual
 _ZN9QTimeLine17setUpdateIntervalEi
 fread
 _ZNK9QMetaEnum4nameEv
 _ZNK7QObject9queryListEPKcS1_bb
 _ZN14QUnicodeTables6scriptEj
 pthread_mutex_init
 _ZNK9QFileInfo12isExecutableEv
 _ZN18QAbstractItemModel15columnsInsertedERK11QModelIndexii
 _ZNK7QRegExp13matchedLengthEv
 _ZN5QChar7toUpperEt
 _ZTI14QTemporaryFile
 _ZN21QPersistentModelIndexaSERK11QModelIndex
 _ZN11QVectorData4growEiiib
 _ZN4QDir13setNameFilterERK7QString
 _ZNK18QAbstractListModel5indexEiiRK11QModelIndex
 _Z14qSystemWarningPKci
 _ZNK5QUuid7versionEv
 _ZN12QDirIteratorC2ERK7QString6QFlagsIN4QDir6FilterEES3_INS_12IteratorFlagEE
 _ZN9QHashData12allocateNodeEv
 __xstat
 _ZN13QFSFileEngine11currentPathERK7QString
 _ZN15QDateTimeParser15dateTimeCompareERK8QVariantS2_
 pthread_self
 _ZN13QSignalMapper11qt_metacallEN11QMetaObject4CallEiPPv
 _ZN13QPluginLoader6unloadEv
 _ZNK5QTime6minuteEv
 _ZNK18QAbstractListModel10metaObjectEv
 _ZNK15QDateTimeParser11sectionTypeEi
 _ZN21QObjectCleanupHandler6removeEP7QObject
 _ZN18QAbstractItemModel22layoutAboutToBeChangedEv
 _ZN7QObject11customEventEP6QEvent
 _ZN18QFileSystemWatcher11qt_metacastEPKc
 _ZN7QString6numberEji
 _ZN24QAbstractEventDispatcherC2EP7QObject
 _ZN18QFileSystemWatcherD2Ev
 _ZN12QDirIteratorC1ERK7QString6QFlagsIN4QDir6FilterEES3_INS_12IteratorFlagEE
 _ZNK7QRegExp7isValidEv
 _ZN24QAbstractEventDispatcher11qt_metacallEN11QMetaObject4CallEiPPv
 _ZN7QObject11setUserDataEjP15QObjectUserData
 _ZN20QEventDispatcherGlibC1EP7QObject
 _Z11qt_int_sqrtj
 _ZNK9QIODevice17isTextModeEnabledEv
 _ZN7QThread12setStackSizeEj
 _ZN26QAbstractFileEngineHandlerD1Ev
 _ZTV5QFile
 _ZNK10QTextCodec11makeEncoderEv
 _ZN10QTextCodecD2Ev
 _ZNK5QChar7toUpperEv
 _ZN9QMimeDataD1Ev
 _ZN10QEventLoop11qt_metacallEN11QMetaObject4CallEiPPv
 _ZNK11QMetaObject2trEPKcS1_i
 _ZN15QSocketNotifierC2EiNS_4TypeEP7QObjectPKc
 _ZN18QAbstractItemModel12dropMimeDataEPK9QMimeDataN2Qt10DropActionEiiRK11QModelIndex
 _ZN5QFileC2ERK7QStringP7QObject
 _ZNK9QIODevice10isWritableEv
 _ZN7QLocale16staticMetaObjectE
 _ZNK14QLocalePrivate14stringToDoubleERK7QStringPbNS_18GroupSeparatorModeE
 _ZNK5QChar11toTitleCaseEv
 _ZN7QString6numberEmi
 _ZN8QMapData11shared_nullE
 _ZN11QDataStreamD2Ev
 _ZN6QSizeF5scaleERKS_N2Qt15AspectRatioModeE
 _ZN9QMimeDataC1Ev
 _ZN10QTextCodecC2Ev
 _ZN26QAbstractFileEngineHandlerC1Ev
 _ZNK7QString18localeAwareCompareERKS_
 _ZN11QDataStream12setByteOrderENS_9ByteOrderE
 _ZNK11QMetaObject11methodCountEv
 _ZN9QtPrivate16QStringList_sortEP11QStringList
 _ZN7QBuffer8readDataEPcx
 _ZN12QDirIterator4nextEv
 _ZN6QEventD1Ev
 _ZN17QByteArrayMatcherC2ERKS_
 _ZNK5QRect10normalizedEv
 _ZN9QMetaType4loadER11QDataStreamiPv
 _ZN8QProcess12stateChangedENS_12ProcessStateE
 _ZlsR11QDataStreamRK5QUuid
 _ZN11QDataStreamC2Ev
 _ZN18QAbstractItemModelC2ER25QAbstractItemModelPrivateP7QObject
 _ZN7QObjectD1Ev
 _ZNK4QUrl8passwordEv
 __cxa_atexit
 _ZNK11QTextStream19realNumberPrecisionEv
 _ZNK9QFileInfo17canonicalFilePathEv
 _ZN10QByteArray6resizeEi
 _ZN7QStringC2Ei5QChar
 _ZTI27QDynamicPropertyChangeEvent
 _ZN11QTextStream8readLineEx
 _Z10noshowbaseR11QTextStream
 _ZN11QTextStreamrsER5QChar
 _ZN7QString6numberEli
 _ZNK7QString14rightJustifiedEi5QCharb
 _ZNK11QMetaObject9classInfoEi
 _ZN6QSizeF9transposeEv
 _ZN5QChar14unicodeVersionEt
 _ZN7QObject16registerUserDataEv
 _ZNK9QDateTime6daysToERKS_
 _ZN4QDirC2ERKS_
 fprintf
 _ZN20QEventDispatcherGlibC2EP13_GMainContextP7QObject
 _ZN4QDir5matchERK11QStringListRK7QString
 _ZN16QCoreApplication13compressEventEP6QEventP7QObjectP14QPostEventList
 _ZN6QMutex7tryLockEi
 _ZNK7QRegExp9isMinimalEv
 _ZN12QDirIteratorC1ERK4QDir6QFlagsINS_12IteratorFlagEE
 _ZTI8QLibrary
 _ZNK7QObject10metaObjectEv
 _ZN14QObjectPrivate15checkWindowRoleEv
 _ZN11QTranslatorD0Ev
 _Z16qt_check_pointerPKci
 _ZNK4QUrl14queryItemValueERK7QString
 _ZNK7QObject9receiversEPKc
 _ZTV24QAbstractEventDispatcher
 rmdir
 _ZN4QUrlC2ERK7QString
 _ZN5QFile14setPermissionsE6QFlagsINS_10PermissionEE
 _Z11noforcesignR11QTextStream
 _ZN7QLocale16setNumberOptionsE6QFlagsINS_12NumberOptionEE
 _Z3octR11QTextStream
 pthread_attr_setinheritsched
 _ZN9QMetaType4typeEPKc
 _ZN9QSettings8endArrayEv
 _ZN14QStringMatcherD2Ev
 _ZTV9QSettings
 _ZeqRK13QLatin1StringRK10QStringRef
 _ZN11QMetaObject8activateEP7QObjectiPPv
 _ZN11QTextStreamlsERK7QString
 _ZN14QStringMatcherC2Ev
 _ZN27QEventDispatcherGlibPrivateC1EP13_GMainContext
 _ZN14QTemporaryFile16staticMetaObjectE
 _ZNK11QMetaObject12userPropertyEv
 _ZTI27QAbstractFileEngineIterator
 _ZNK19QAbstractFileEngine8fileTimeENS_8FileTimeE
 _ZTI20QEventDispatcherGlib
 _ZNK8QVariant7toSizeFEv
 _ZNK13QFSFileEngine5rmdirERK7QStringb
 _Z5qQNaNv
 _ZN19QAbstractFileEngineC2Ev
 _ZNK9QDateTime8toStringEN2Qt10DateFormatE
 _ZN6QTimer11qt_metacastEPKc
 _ZNK12QTextDecoder10hasFailureEv
 _ZN9QTimeLineD2Ev
 _ZN24QAbstractEventDispatcher5awakeEv
 _exit
 _ZN4QUrl7setPortEi
 _ZTV26QAbstractFileEngineHandler
 _ZNK9QIODevice12bytesToWriteEv
 _ZN16QCoreApplication15watchUnixSignalEib
 _ZNK19QAbstractFileEngine12isSequentialEv
 _ZN6QMutex7tryLockEv
 _ZNK5QTime8toStringERK7QString
 _ZN7QBufferC2EP10QByteArrayP7QObject
 _ZN7QString6expandEi
 _ZN19QAbstractFileEngineD2Ev
 _ZN9QIODevice9readyReadEv
 _ZN9QSettings8setValueERK7QStringRK8QVariant
 _ZN7QBuffer4openE6QFlagsIN9QIODevice12OpenModeFlagEE
 _Z8qWarningPKcz
 _ZNK5QDate9dayOfWeekEv
 _ZN5QFile12readLineDataEPcx
 _ZNK7QString7trimmedEv
 _ZN20QEventDispatcherUNIX11qt_metacastEPKc
 _ZN18QFileSystemWatcher11removePathsERK11QStringList
 _ZN25QAbstractItemModelPrivate12rowsInsertedERK11QModelIndexii
 _ZN16QCoreApplicationD2Ev
 _ZN7QString10setUnicodeEPK5QChari
 _ZN18QAbstractItemModelC1EP7QObject
 _ZTS7QObject
 _ZNK5QDate10daysInYearEv
 _ZNK7QString6toUtf8Ev
 _ZN20QEventDispatcherGlib16hasPendingEventsEv
 _ZN23QCoreApplicationPrivate13checkInstanceEPKc
 _ZN4QUrl11fromEncodedERK10QByteArrayNS_11ParsingModeE
 _Zls6QDebugRK4QUrl
 _ZNK7QLocale9monthNameEiNS_10FormatTypeE
 _ZNK5QChar7isSpaceEv
 _ZN16QSegfaultHandler10initializeEPPci
 _ZNK11QTextStream6stringEv
 _ZNK7QString16updatePropertiesEv
 _ZTS8QLibrary
 _ZN25QAbstractItemModelPrivate11rowsRemovedERK11QModelIndexii
 _ZNK7QLocale7countryEv
 _ZNK11QMetaMethod10methodTypeEv
 _ZN7QString7replaceEiiPK5QChari
 _ZThn8_N16QTextCodecPluginD1Ev
 _ZN9QFileInfoC2Ev
 _ZNK7QRegExp7indexInERK7QStringiNS_9CaretModeE
 _ZNK10QTextCodec7aliasesEv
 _ZN4QUrl7fromAceERK10QByteArray
 _ZNK13QMetaProperty4readEPK7QObject
 _ZN9QSettingsC1ERK7QStringS2_P7QObject
 memcpy
 _ZNK18QAbstractItemModel10metaObjectEv
 _ZN21QPersistentModelIndexC1ERK11QModelIndex
 _ZNK8QProcess16workingDirectoryEv
 _ZN12QCustomEventC1EiPv
 isalpha
 getpid
 _ZN9QFileInfoD2Ev
 _ZN9QMimeData11qt_metacastEPKc
 _ZNK18QAbstractItemModel5buddyERK11QModelIndex
 _ZN10QTextCodec6localeEv
 _ZN13QSystemLocaleD0Ev
 _ZN21QObjectCleanupHandlerD0Ev
 _ZNK11QMetaObject8propertyEi
 _ZNK7QString7toULongEPbi
 truncate64
 _ZN27QEventDispatcherUNIXPrivateD0Ev
 _ZN8QVariantC2ERK5QLine
 _ZNK8QVariant10toDateTimeEv
 _ZNK4QUrl8hasQueryEv
 _ZN18QAbstractItemModelD1Ev
 _ZN4QDir14isRelativePathERK7QString
 _ZN18QAbstractItemModel6submitEv
 _ZTV9QIODevice
 _ZNK11QMetaObject16indexOfClassInfoEPKc
 _ZNK7QLocale10timeFormatENS_10FormatTypeE
 _ZeqRK10QStringRefS1_
 _ZN9QFileInfo7setFileERK4QDirRK7QString
 execv
 _ZN18QThreadStorageDataD2Ev
 _ZN12QDirIteratorD2Ev
 _ZNK18QAbstractItemModel20supportedDropActionsEv
 _ZNK4QDir16relativeFilePathERK7QString
 gettimeofday
 _ZN7QStringC2E5QChar
 _ZNK7QString7indexOfE5QChariN2Qt15CaseSensitivityE
 _ZTI11QTranslator
 _ZN20QEventDispatcherGlibD2Ev
 _ZN5QTime5startEv
 _ZN5QFile5flushEv
 _ZN7QStringaSE5QChar
 _ZNK7QLocale8toStringERK5QDateNS_10FormatTypeE
 ftell
 _Z16qInstallPathDatav
 _ZN11QTimerEventC1Ei
 g_main_context_unref
 _ZNK9QTimeLine11currentTimeEv
 _ZNK14QTemporaryFile12fileTemplateEv
 _ZNK9QIODevice5atEndEv
 _ZlsR11QDataStreamRK5QRect
 _ZTV17QFactoryInterface
 _ZN13QMetaPropertyC2Ev
 _ZN11QDataStreamC2EP9QIODevice
 _ZNK11QDataStream6statusEv
 _ZN9QTimeLine13setFrameRangeEii
 _ZN7QStringC1E5QChar
 _ZN8QProcess17setupChildProcessEv
 _ZN16QCoreApplication13testAttributeEN2Qt20ApplicationAttributeE
 _ZN8QVariantC1ERK5QLine
 _ZN9QIODevice12bytesWrittenEx
 _ZN6QEventC2ENS_4TypeE
 _ZN5QChar14unicodeVersionEj
 _ZN5QUuidC2EPKc
 _ZNK15QDateTimeParser10getMaximumEv
 _ZN12QTextDecoderD1Ev
 _ZN16QCoreApplication4execEv
 _ZN16QCoreApplication14notifyInternalEP7QObjectP6QEvent
 _ZN9QMimeData16staticMetaObjectE
 _ZN9QListData6removeEi
 _ZN7QString6removeERKS_N2Qt15CaseSensitivityE
 _ZN5QFile14setPermissionsERK7QString6QFlagsINS_10PermissionEE
 ceil
 _ZlsR11QDataStreamRK7QPointF
 _ZN14QLocalePrivate19bytearrayToLongLongEPKciPbS2_
 _ZN14QFactoryLoaderD0Ev
 _ZN18QAbstractItemModel20rowsAboutToBeRemovedERK11QModelIndexii
 _ZN20QEventDispatcherGlibC2EP7QObject
 _ZNK7QRegExpeqERKS_
 _ZN8QProcess23readyReadStandardOutputEv
 _ZNK7QString5countERKS_N2Qt15CaseSensitivityE
 _ZTV27QEventDispatcherGlibPrivate
 _ZNK5QDate9addMonthsEi
 _ZN14QTemporaryFileC2ERK7QString
 _ZTS18QFileSystemWatcher
 _ZN13QPluginLoaderC1ERK7QStringP7QObject
 _ZNK8QVariant6toUIntEPb
 _ZN8QVariantC2ERK5QDate
 _ZNK5QChar6isMarkEv
 _ZTS9QMimeData
 _ZN4QDir8tempPathEv
 _ZNK11QTranslator7isEmptyEv
 _ZNK6QLineF6lengthEv
 _ZlsR11QDataStreamRK7QRegExp
 _ZN9QListData6appendEv
 _ZNK11QTextStream10fieldWidthEv
 _ZTS25QAbstractItemModelPrivate
 _ZN4QDir20fromNativeSeparatorsERK7QString
 _ZN9QResource11setFileNameERK7QString
 _Z6qsrandj
 _ZN14QFactoryLoaderC2EPKcRK11QStringListRK7QStringN2Qt15CaseSensitivityE
 _ZN5QChar11toTitleCaseEt
 _ZN14QTemporaryFile4openE6QFlagsIN9QIODevice12OpenModeFlagEE
 _ZN5QDate14shortMonthNameEi
 _ZNK9QBitArraycoEv
 pthread_cond_timedwait
 _ZTS11QChildEvent
 pthread_attr_destroy
 _ZN20QEventDispatcherGlib9interruptEv
 _ZN5QFile4linkERK7QString
 _ZNK10QByteArray8toDoubleEPb
 _ZNK14QFactoryLoader8instanceERK7QString
 _ZN10QByteArray6removeEii
 _ZNK9QFileInfo16completeBaseNameEv
 _ZNK7QObject10objectNameEv
 _ZN21QPersistentModelIndexC1ERKS_
 _ZN19QAbstractFileEngine5flushEv
 _ZNK14QLocalePrivate14doubleToStringEdiNS_10DoubleFormEij
 _ZN12QDirIteratorC2ERK7QString6QFlagsINS_12IteratorFlagEE
 _ZN19QAbstractTableModel12dropMimeDataEPK9QMimeDataN2Qt10DropActionEiiRK11QModelIndex
 dup2


Name
_ZNK9QMetaEnum3keyEi
_Z4qInfv
_ZN16QCoreApplication13compressEventEP6QEventP7QObjectP14QPostEventList
_ZN7QObject11setUserDataEjP15QObjectUserData
_ZN19QAbstractFileEngine6removeEv
_ZNK14QObjectPrivate10senderListEv
_ZNK9QTimeLine9loopCountEv
_ZTV19QAbstractFileEngine
_ZN4QDir9separatorEv
_ZN5QTime10fromStringERK7QStringS2_
_ZN21QPersistentModelIndexC2ERK11QModelIndex
_ZN5QDate13longMonthNameEi
_ZN4QDiraSERKS_
_ZN11QTextStream5flushEv
_ZN20QEventDispatcherUNIX11qt_metacallEN11QMetaObject4CallEiPPv
_ZNK11QMetaObject15indexOfPropertyEPKc
_ZN25QPersistentModelIndexData6createERK11QModelIndex
_ZN14QObjectPrivate14deleteChildrenEv
_ZN7QObject16staticMetaObjectE
_ZTI26QTextCodecFactoryInterface
_ZN11QMetaObject12invokeMethodEP7QObjectPKcN2Qt14ConnectionTypeE22QGenericReturnArgument16QGenericArgumentS7_S7_S7_S7_S7_S7_S7_S7_S7_
_ZNK10QByteArray10startsWithEc
_ZN9QtPrivate23QStringList_lastIndexOfEPK11QStringListRK7QRegExpi
_ZN21QPersistentModelIndexaSERK11QModelIndex
_ZN13QSignalMapperD2Ev
_ZNK10QByteArray6isNullEv
_ZN8QProcess12stateChangedENS_12ProcessStateE
_ZTS14QMetaCallEvent
_ZNK15QDateTimeParser10sectionPosEi
_ZNK15QDateTimeParser8findAmPmER7QStringiPi
_ZNK8QProcess10metaObjectEv
_ZN18QFileSystemWatcherC2EP7QObject
_ZN17QByteArrayMatcheraSERKS_
_ZN4QDirC1ERK7QString
_ZN19QAbstractTableModel12dropMimeDataEPK9QMimeDataN2Qt10DropActionEiiRK11QModelIndex
_ZN7QStringC2E5QChar
_ZTI14QMetaCallEvent
_ZTI13QFontLaoCodec
_ZN14QObjectPrivate19moveToThread_helperEv
_ZN8QProcess20readAllStandardErrorEv
_ZN11QTextStreamC2EP9QIODevice
_ZN8QVariantC1ERK5QTime
_ZN7QString6resizeEi
_ZN5QFile4copyERK7QString
_ZN7QObject11qt_metacastEPKc
_ZN7QString16fromAscii_helperEPKci
_ZTI27QDynamicPropertyChangeEvent
_ZNK9QDateTime9addMonthsEi
_ZN8QProcess16waitForReadyReadEi
_ZN6QEventD1Ev
_ZThn8_N16QTextCodecPluginD1Ev
_ZN7QObjectC1ER14QObjectPrivatePS_
_ZNK11QTextStream5atEndEv
_ZN11QDataStreamC1Ev
_ZNK10QByteArray5countERKS_
_ZNK7QBuffer4dataEv
_ZN14QWaitConditionC2Ev
_ZN18QAbstractItemModelD2Ev
_ZN7QString8fromUtf8EPKci
_ZN8QLibrary7resolveEPKc
_ZNK20QEventDispatcherGlib16registeredTimersEP7QObject
_Zls6QDebug6QFlagsIN9QIODevice12OpenModeFlagEE
_ZNK6QRectF8containsERKS_
_ZNK9QTimeLine14updateIntervalEv
_ZNK9QFileInfo5ownerEv
_ZNK4QDir13entryInfoListE6QFlagsINS_6FilterEES0_INS_8SortFlagEE
_ZN13QSignalMapper3mapEv
_ZNK19QAbstractFileEngine8fileNameENS_8FileNameE
_ZN12QLibraryInfo16licensedProductsEv
_ZNK13QSignalMapper7mappingERK7QString
_ZN11QThreadData5derefEv
_ZN14QUnicodeTables6scriptEj
_ZN18QCryptographicHash5resetEv
_ZN9QIODevice11qt_metacallEN11QMetaObject4CallEiPPv
_ZN5QChar7toLowerEj
_ZNK4QDir4pathEv
_ZN8QVariantC1EN2Qt11GlobalColorE
_ZN7QObject10disconnectEPKS_PKcS1_S3_
_ZNK9QDateTime8timeSpecEv
_ZTI11QTimerEvent
_ZNK13QMetaProperty4nameEv
_ZN20QEventDispatcherGlibC1EP7QObject
_ZN5QDate10fromStringERK7QStringS2_
_ZN14QFactoryLoaderC2EPKcRK11QStringListRK7QStringN2Qt15CaseSensitivityE
_ZN8QVariantC2ERK7QRegExp
_ZN7QRegExpaSERKS_
_ZNK11QMetaObject14classInfoCountEv
_ZN5QChar7toLowerEt
_ZNK8QVariant4typeEv
_ZN4QUrlaSERKS_
_ZNK7QThread10metaObjectEv
_ZN7QBuffer9writeDataEPKcx
_ZNK6QRectF10normalizedEv
_ZN7QRegExp3capEi
_ZN24QAbstractEventDispatcherC2ER31QAbstractEventDispatcherPrivateP7QObject
_ZTI13QFSFileEngine
_Z15qt_error_stringi
_ZN11QChildEventD0Ev
_ZNK4QUrl12hasQueryItemERK7QString
_ZNK11QTsciiCodec7mibEnumEv
_ZN23QCoreApplicationPrivateD1Ev
_ZN16QCoreApplication9postEventEP7QObjectP6QEventi
_ZN9QListData7detach2Ev
_ZN9QDateTimeC2ERKS_
_ZNK10QByteArray11toULongLongEPbi
_ZN19QAbstractTableModelD1Ev
_Z18qInstallMsgHandlerPFv9QtMsgTypePKcE
_ZN5QChar12mirroredCharEj
_ZNK13QMetaProperty8typeNameEv
_ZN9QHashData14destroyAndFreeEv
_ZN24QAbstractEventDispatcherC2EP7QObject
_ZrsR11QDataStreamR5QSize
_ZN7QStringC2Ei5QChar
_ZNK9QSettings16fallbacksEnabledEv
_ZrsR11QDataStreamR5QChar
_ZNK19QAbstractFileEngine5errorEv
_ZN18QThreadStorageDataC2EPFvPvE
_ZN5QFile4openEP8_IO_FILE6QFlagsIN9QIODevice12OpenModeFlagEE
_ZTS27QEventDispatcherUNIXPrivate
_ZNK13QFSFileEngine17supportsExtensionEN19QAbstractFileEngine9ExtensionE
_ZNK7QString3argERKS_iRK5QChar
_Z7qstrcpyPcPKc
_ZNK5QDate9dayOfWeekEv
_ZN11QTextStreamrsER5QChar
_ZNK15QDateTimeParser10sectionPosERKNS_11SectionNodeE
_ZN11QTranslatorC1EP7QObjectPKc
_ZN5QChar12mirroredCharEt
_ZN20QEventDispatcherGlibD0Ev
_ZN16QCoreApplication4quitEv
_ZN7QObject16disconnectNotifyEPKc
_ZNK15QDateTimeParser9maxChangeEi
_Z16qInstallPathDocsv
_Z5resetR11QTextStream
_ZN4QDirC2ERK7QStringS2_6QFlagsINS_8SortFlagEES3_INS_6FilterEE
_ZN24QAbstractEventDispatcher11qt_metacastEPKc
_ZN19QAbstractTableModelC2ER25QAbstractItemModelPrivateP7QObject
_ZN4QDir14setNameFiltersERK11QStringList
_ZN10QMutexPoolD2Ev
_ZNK9QMimeData8hasImageEv
_ZN9QDateTimeC2ERK5QDate
_ZTS11QTsciiCodec
_ZN7QLocale16setNumberOptionsE6QFlagsINS_12NumberOptionEE
_ZN8QLibrary16staticMetaObjectE
_ZN11QVectorData6mallocEiiiPS_
_ZNK14QTemporaryFile10autoRemoveEv
_ZNK9QFileInfo5groupEv
_ZN9QSettingsC2ERK7QStringS2_P7QObject
_ZN13QSignalMapperC2EP7QObject
_ZrsR11QDataStreamR5QRect
_ZN10QByteArrayC2EPKc
_ZN9QFileInfoC2ERKS_
_ZNK5QUuidgtERKS_
_ZN5QDateC1Eiii
_ZNK9QDateTime8toTime_tEv
_ZN11QDataStreamD2Ev
_ZNK9QTimeLine12frameForTimeEi
_Z8qstrncpyPcPKcj
_ZN5QFileC2ER12QFilePrivateP7QObject
_ZNK9QFileInfo7ownerIdEv
_ZN10QByteArray6appendEc
_ZN18QFileSystemWatcherD0Ev
_ZN11QTranslator11qt_metacallEN11QMetaObject4CallEiPPv
_Z19qInstallPathSysconfv
_ZNK11QTextStream14fieldAlignmentEv
_ZNK6QRectF13toAlignedRectEv
_ZNK4QUrl4pathEv
_end
_ZN16QCoreApplication16hasPendingEventsEv
_ZNK15QDateTimeParser14sectionMaxSizeENS_7SectionEi
_ZNK21QPersistentModelIndex5childEii
_ZN9QSettings5eventEP6QEvent
_ZN8QLibraryD2Ev
_ZNK5QDate9addMonthsEi
_ZN7QThread10initializeEv
_ZN8QMapData11shared_nullE
_ZN25QAbstractItemModelPrivate15columnsInsertedERK11QModelIndexii
_ZN13QFSFileEngine8homePathEv
_ZN5QRect10moveCenterERK6QPoint
_ZN10QByteArray10fromBase64ERKS_
_ZNK5QChar7toAsciiEv
_ZN8QLibraryC2ERK7QStringiP7QObject
_ZN9QMimeData11qt_metacallEN11QMetaObject4CallEiPPv
_ZTV7QBuffer
_ZN16QCoreApplication18applicationDirPathEv
_Z13uppercasebaseR11QTextStream
_ZNK13QPluginLoader8fileNameEv
_ZN21QPersistentModelIndexaSERKS_
_ZNK7QString8toUShortEPbi
_ZN10QByteArray6numberEdci
_ZN8QProcess14setReadChannelENS_14ProcessChannelE
_ZeqRKN15QDateTimeParser11SectionNodeES2_
_ZN17QByteArrayMatcherC1ERK10QByteArray
_ZNK6QLineF6lengthEv
_ZN11QTextStreamC1EP7QString6QFlagsIN9QIODevice12OpenModeFlagEE
_ZN7QObjectD1Ev
_ZN20QEventDispatcherGlib5flushEv
_ZNK9QMimeData4urlsEv
_ZNK10QByteArray7toLowerEv
_ZN25QAbstractItemModelPrivate11rowsRemovedERK11QModelIndexii
_ZN9QIODeviceC2EP7QObject
_ZNK11QMetaObject6trUtf8EPKcS1_i
_ZTS11QChildEvent
_ZNK4QDir6isRootEv
_ZN12QSockNotTypeC1Ev
_ZN15QSocketNotifierC2EiNS_4TypeEP7QObjectPKc
_ZNK11QTextStream5codecEv
_ZN11QDataStream10writeBytesEPKcj
_Z8qReallocPvj
_ZN10QByteArray6resizeEi
_ZN8QVariantC1ERK6QRectF
_ZNK7QString7compareERKS_N2Qt15CaseSensitivityE
_ZN9QIODevice4readEx
_ZN15QSocketNotifierD1Ev
_ZN23QCoreApplicationPrivate21isTranslatorInstalledEP11QTranslator
_ZN8QLibraryC1ERK7QStringiP7QObject
_ZNK7QBuffer5atEndEv
_ZN4QDirC1ERKS_
_ZN14QObjectPrivate30sendPendingChildInsertedEventsEv
_ZN20QEventDispatcherGlib9interruptEv
_ZNK13QFSFileEngine12isSequentialEv
_Z10forcepointR11QTextStream
_ZN9QSettings11qt_metacallEN11QMetaObject4CallEiPPv
_ZTV18QAbstractListModel
_ZNK5QChar8isSymbolEv
_Zls6QDebugRK4QDir
_ZNK11QMetaObject12methodOffsetEv
_ZN5QFileC1ER12QFilePrivateP7QObject
_ZNK9QTimeLine10curveShapeEv
_ZNK10QByteArray5toHexEv
_ZNK7QRegExp11lastIndexInERK7QStringiNS_9CaretModeE
_ZN5QFile5flushEv
_ZTS6QTimer
_ZN5QFile6renameERK7QStringS2_
_ZTI16QTextCodecPlugin
_ZNK9QIODevice8openModeEv
_ZNK5QUuidltERKS_
_ZN19QAbstractFileEngine8setErrorEN5QFile9FileErrorERK7QString
_ZN10QSemaphore10tryAcquireEi
_ZN24QAbstractEventDispatcher14setEventFilterEPFbPvE
_ZN17QByteArrayMatcherC1ERKS_
_ZN4QUrl12setAuthorityERK7QString
_ZN11QTextStreamD0Ev
_ZN11QThreadData3refEv
_ZN19QAbstractFileEngine6createERK7QString
_Z9qChecksumPKcj
_ZNK11QTsciiCodec4nameEv
_Z15qAddPostRoutinePFvvE
_ZN7QObject9destroyedEPS_
_ZNK14QLocalePrivate14doubleToStringEdiNS_10DoubleFormEij
_ZNK13QFSFileEngine6handleEv
_ZNK4QDir6existsEv
_ZN9QFileInfo7setFileERK4QDirRK7QString
_ZNK5QTime7elapsedEv
_ZN21QPersistentModelIndexC1ERK11QModelIndex
_ZN8QLibrary9isLibraryERK7QString
_Z10noshowbaseR11QTextStream
_ZN11QMetaObject11changeGuardEPP7QObjectS1_
_ZNK4QUrl8passwordEv
_ZN9QMetaType12registerTypeEPKcPFvPvEPFS2_PKvE
_ZNK10QByteArray8endsWithEPKc
_ZNK4QUrlltERKS_
_ZN7QBuffer4openE6QFlagsIN9QIODevice12OpenModeFlagEE
_ZNK13QPluginLoader8isLoadedEv
_ZN8QVariant5clearEv
_Zls6QDebugRK6QPoint
_ZN4QDir14isRelativePathERK7QString
_ZN7QString16codecForCStringsE
_ZNK11QMetaObject15enumeratorCountEv
_ZN5QFile6resizeEx
_ZNK7QString5countERKS_N2Qt15CaseSensitivityE
_ZN7QLocaleC2Ev
_ZN11QChildEventD2Ev
_ZNK8QVariant9constDataEv
_ZNK8QVariant8typeNameEv
_ZN9QHashData8freeNodeEPv
_ZN11QTextStream17setFieldAlignmentENS_14FieldAlignmentE
_ZN14QTemporaryFileC1ERK7QStringP7QObject
_ZN23QCoreApplicationPrivate7attribsE
_ZNK4QDir9entryListERK11QStringList6QFlagsINS_6FilterEES3_INS_8SortFlagEE
_ZN8QProcess23readyReadStandardOutputEv
_ZNK13QMetaProperty10isFlagTypeEv
_ZN18QFileSystemWatcherC1EP7QObject
_ZN9QSettings8endArrayEv
_ZN20QEventDispatcherGlib24unregisterSocketNotifierEP15QSocketNotifier
_ZTS14QObjectPrivate
_ZN8QVariant4dataEv
_ZNK7QRegExp7isValidEv
_ZN9QListData6detachEv
_ZN12QTextEncoderD1Ev
_Z24qGlobalPostedEventsCountv
_ZN11QTextStream14skipWhiteSpaceEv
_ZN6QMutexD2Ev
_Z15lowercasedigitsR11QTextStream
_ZNK18QAbstractItemModel20supportedDragActionsEv
_ZNK11QMetaObject14propertyOffsetEv
_ZN24QAbstractEventDispatcherC1ER31QAbstractEventDispatcherPrivateP7QObject
_ZNK7QString12ascii_helperEv
_ZN20QEventDispatcherGlibD2Ev
_ZN7QStringaSERKS_
_ZN12QSockNotTypeD2Ev
_ZN12QDirIterator4nextEv
_ZNK10QByteArray10toLongLongEPbi
_ZN20QEventDispatcherGlibC1EP13_GMainContextP7QObject
_ZTV23QCoreApplicationPrivate
_ZTS26QTextCodecFactoryInterface
_ZN11QTextStreamrsER10QByteArray
_ZN5QTime10fromStringERK7QStringN2Qt10DateFormatE
_ZN13QFSFileEngine6drivesEv
_ZTV12QDirIterator
_ZNK9QFileInfo16completeBaseNameEv
_ZN18QFileSystemWatcher11qt_metacastEPKc
_ZN18QAbstractItemModel13removeColumnsEiiRK11QModelIndex
_ZN20QEventDispatcherGlib16hasPendingEventsEv
_ZN5QSize9transposeEv
_ZNK9QFileInfo12lastModifiedEv
_ZN11QTextStreamC1Ev
_ZN6QTimerD0Ev
_ZNK19QAbstractFileEngine5atEndEv
_ZN12QTextDecoderD2Ev
_ZN11QTextStreamlsEPKc
_ZN18QAbstractItemModel15beginRemoveRowsERK11QModelIndexii
_ZN16QCoreApplicationC1ERiPPc
_ZN9QMimeData7setUrlsERK5QListI4QUrlE
_Z8qstricmpPKcS0_
_ZN27QEventDispatcherUNIXPrivateD1Ev
_ZNK4QUrl9authorityEv
_ZN18QAbstractItemModelC2EP7QObject
_ZN7QRegExpC2ERKS_
_ZN9QIODevice8readLineEPcx
_ZN4QUrlC2ERKS_
_ZN7QString6appendE5QChar
_ZN8QLibraryC2EP7QObject
_ZN8QProcess21readAllStandardOutputEv
_ZN10QTextCodec12codecForHtmlERK10QByteArray
_ZN18QFileSystemWatcherD2Ev
_ZNK15QDateTimeParser8setDigitER8QVariantii
_ZTI11QDataStream
_ZN16QCoreApplication16sendPostedEventsEP7QObjecti
_ZN6QSizeF9transposeEv
_ZTV10QTextCodec
_ZN11QTextStreamlsEPKv
_ZTV10QEventLoop
_ZN20QEventDispatcherGlib16staticMetaObjectE
_ZN9QListData4moveEii
_ZNK18QAbstractListModel10metaObjectEv
_ZNK13QFontLaoCodec18convertFromUnicodeEPK5QChariPN10QTextCodec14ConverterStateE
_ZNK8QVariant10canConvertENS_4TypeE
_ZNK4QUrlneERKS_
_ZNK9QDateTime7addDaysEi
_Z5qHashRK10QByteArray
_ZTS20QEventDispatcherUNIX
_ZNK7QString5splitERKS_NS_13SplitBehaviorEN2Qt15CaseSensitivityE
_ZlsR11QDataStreamRK5QChar
_ZlsR11QDataStreamRK5QSize
_ZN20QEventDispatcherUNIX13registerTimerEiiP7QObject
_ZN21QObjectCleanupHandler6removeEP7QObject
_ZNK9QSettings5groupEv
_ZN18QAbstractItemModel13endRemoveRowsEv
_ZNK7QRegExp9isMinimalEv
_ZN4QDir6renameERK7QStringS2_
_ZN11QBasicTimer4stopEv
_ZTV7QObject
_ZN10QByteArray7fromHexERKS_
_ZNK9QResource7isValidEv
_ZN11QTranslator16staticMetaObjectE
_ZN8QProcess11qt_metacastEPKc
_Z13lowercasebaseR11QTextStream
_ZNK8QVariant6toBoolEv
_ZN17QByteArrayMatcherD1Ev
_ZN9QTimeLine11qt_metacallEN11QMetaObject4CallEiPPv
_ZN6QMutex6unlockEv
_ZNK9QFileInfo6suffixEv
_ZrsR11QDataStreamR5QDate
_ZN7QLocale16languageToStringENS_8LanguageE
_ZTS16QTextCodecPlugin
_ZNK7QBuffer3posEv
_ZN4QUrl11fromEncodedERK10QByteArray
_ZN16QCoreApplication4selfE
_ZN25QAbstractItemModelPrivate14columnsRemovedERK11QModelIndexii
_ZN13QFSFileEngine14setPermissionsEj
_ZNK7QObject9receiversEPKc
_ZN5QFile10decodeNameERK10QByteArray
_ZNK7QRegExpeqERKS_
_ZTV27QDynamicPropertyChangeEvent
_ZlsR11QDataStreamRK5QRect
_ZN5QFile8readDataEPcx
_ZN18QAbstractItemModel11qt_metacastEPKc
_ZN5QFile14setPermissionsERK7QString6QFlagsINS_10PermissionEE
_ZlsR11QDataStreamRK4QUrl
_ZNK18QAbstractItemModel8hasIndexEiiRK11QModelIndex
_ZNK9QDateTime8addYearsEi
_ZN5QTime7restartEv
_ZN18QAbstractItemModel16endInsertColumnsEv
_ZNK19QAbstractFileEngine8fileTimeENS_8FileTimeE
_ZNK9QFileInfo12absolutePathEv
_ZNK10QByteArray8toUShortEPbi
_ZN11QMetaObject16checkConnectArgsEPKcS1_
_ZNK5QFile3posEv
_ZN7QObject12moveToThreadEP7QThread
_ZNK9QSettings6statusEv
_ZTV18QFileSystemWatcher
qt_addObject
_ZN21QPersistentModelIndexC1ERKS_
_ZNK7QString10startsWithERK13QLatin1StringN2Qt15CaseSensitivityE
_ZN27QEventDispatcherUNIXPrivateC2Ev
_ZNK24QAbstractEventDispatcher10metaObjectEv
_ZN4QDir8homePathEv
_ZN13QSystemLocaleD1Ev
_ZrsR11QDataStreamR5QUuid
_ZN13QSignalMapperC1EP7QObject
_ZN10QMutexPool3getEPKv
_ZN11QTextStreamC1ERK10QByteArray6QFlagsIN9QIODevice12OpenModeFlagEE
_ZNK5QFile8readLinkEv
_ZNK9QFileInfo10isWritableEv
_ZN14QFactoryLoader11qt_metacallEN11QMetaObject4CallEiPPv
_ZN13QSignalMapper10setMappingEP7QObjecti
_ZN12QDirIteratorD1Ev
_ZN9QTimeLine13setCurveShapeENS_10CurveShapeE
_ZNK5QDate8toStringEN2Qt10DateFormatE
_ZN4QUrl6setUrlERK7QString
_ZN9QIODevice5closeEv
_ZN11QTextStreamD2Ev
_ZN9QDateTime11setTimeSpecEN2Qt8TimeSpecE
_ZN4QUrl7setHostERK7QString
_ZN9QHashData13detach_helperEPFvPNS_4NodeEPvEi
_ZN10QByteArray5clearEv
_ZN12QTextDecoder9toUnicodeERK10QByteArray
_ZN9QIODevice7putCharEc
_Z8qWarningPKcz
_Z8qAppNamev
_ZN4QUrl11setPasswordERK7QString
_ZNK7QLocale8toStringEdci
_ZN14QReadWriteLock6unlockEv
_ZTI8QProcess
_ZN16QCoreApplication5flushEv
_ZN9QIODeviceC2ER16QIODevicePrivateP7QObject
_ZN8QVariantC2ERK7QPointF
_ZNK4QDir13canonicalPathEv
_ZN7QString6numberEdci
_ZNK9QDateTime10toTimeSpecEN2Qt8TimeSpecE
_ZNK7QThread9isRunningEv
_ZN27QAbstractFileEngineIteratorC2E6QFlagsIN4QDir6FilterEERK11QStringList
_ZN10QTextCodec11codecForMibEi
_ZN8QProcess13startDetachedERK7QStringRK11QStringList
_ZN12QDirIteratorC1ERK7QStringRK11QStringList6QFlagsIN4QDir6FilterEES6_INS_12IteratorFlagEE
_ZTS9QTimeLine
_ZN11QDataStreamC2EP10QByteArray6QFlagsIN9QIODevice12OpenModeFlagEE
_ZN17QByteArrayMatcherC2Ev
_Z13qErrnoWarningiPKcz
_ZNK7QLocale9zeroDigitEv
_ZNK9QMimeData4htmlEv
_ZNK9QFileInfo3dirEb
_ZN25QPersistentModelIndexData7destroyEPS_
_ZN16QTextCodecPluginD0Ev
_ZN19QAbstractFileEngine4openE6QFlagsIN9QIODevice12OpenModeFlagEE
_ZNK9QDateTime6secsToERKS_
_ZN10QByteArray6setNumExi
_ZeoRK9QBitArrayS1_
_ZNK19QAbstractFileEngine6handleEv
_ZN9QIODeviceC1EP7QObject
_ZN20QEventDispatcherGlib16unregisterTimersEP7QObject
_ZN16QTextCodecPlugin11qt_metacastEPKc
_ZN11QThreadDataD1Ev
_ZN16QCoreApplication4initEv
_ZN9QMimeDataD1Ev
_ZN5QCharC1Ec
_ZN16QCoreApplicationD0Ev
_ZN16QIODevicePrivateD1Ev
_ZN18QAbstractListModel11qt_metacallEN11QMetaObject4CallEiPPv
_ZN11QTextStreamC1EP10QByteArray6QFlagsIN9QIODevice12OpenModeFlagEE
_ZN20QEventDispatcherUNIX22registerSocketNotifierEP15QSocketNotifier
_ZN7QLocaleC2ENS_8LanguageENS_7CountryE
_ZN7QObject5eventEP6QEvent
_ZNK11QTextStream6statusEv
_ZN5QCharC1Eh
_ZNK5QChar11toTitleCaseEv
_ZNK9QFileInfo3dirEv
_ZN13QSystemLocaleC2Ev
_ZN25QAbstractItemModelPrivate22addPersistentIndexDataEP25QPersistentModelIndexData
_ZTS15QDateTimeParser
_ZNK10QByteArray6toUIntEPbi
_ZN13QPluginLoader4loadEv
_ZNK4QDir5mkdirERK7QString
_ZN9QtPrivate19QStringList_indexOfEPK11QStringListRK7QRegExpi
_ZNK15QDateTimeParser11absoluteMaxEiRK9QDateTime
_ZN9QTimeLine17setUpdateIntervalEi
_ZN9QTimeLine12stateChangedENS_5StateE
_ZN13QFSFileEngine4seekEx
_ZNK7QString5utf16Ev
_ZNK15QDateTimeParser8getDigitERK8QVarianti
_ZN5QDate7isValidEiii
_ZN4QDir6removeERK7QString
_ZN20QEventDispatcherUNIX6wakeUpEv
_ZNK13QFSFileEngine8fileNameEN19QAbstractFileEngine8FileNameE
_ZNK7QLocale8toStringERK5QDateRK7QString
_ZNK7QString11toLocal8BitEv
_Z8qMemCopyPvPKvj
_ZNK9QFileInfo8filePathEv
_ZN6QTimerD2Ev
_ZN13QFSFileEngine4copyERK7QString
_ZN18QAbstractItemModel12dropMimeDataEPK9QMimeDataN2Qt10DropActionEiiRK11QModelIndex
_ZN5QUuidC2EPKc
_ZN11QMetaObject8activateEP7QObjectPKS_iPPv
_ZNK7QObject10objectNameEv
_ZNK19QAbstractFileEngine5rmdirERK7QStringb
_ZN11QTextStreamC2ERK10QByteArray6QFlagsIN9QIODevice12OpenModeFlagEE
_ZN19QAbstractFileEngine4seekEx
_ZTI20QEventDispatcherGlib
_ZN10QByteArray6setNumEyi
_ZN8QProcess14waitForStartedEi
_ZN9QtPrivate28QStringList_replaceInStringsEP11QStringListRK7QStringS4_N2Qt15CaseSensitivityE
_ZNK9QFileInfo11permissionsEv
_ZN7QRegExp3posEi
_ZN9QSettingsC2EP7QObject
_ZNK7QString6toUtf8Ev
_ZN8QProcess13startDetachedERK7QString
_ZTS23QCoreApplicationPrivate
_ZN14QReadWriteLock15tryLockForWriteEi
_ZN9QFileInfoC2ERK5QFile
_ZN4QUrl7fromAceERK10QByteArray
_ZNK18QAbstractItemModel5matchERK11QModelIndexiRK8QVarianti6QFlagsIN2Qt9MatchFlagEE
_ZN11QThreadDataC2Ei
_Z9qCriticalPKcz
_ZNK7QBuffer10metaObjectEv
_ZN8QVariantC1Eb
_ZN8QVariantC1Ed
_ZN9QtPrivate20QStringList_containsEPK11QStringListRK7QStringN2Qt15CaseSensitivityE
_ZN9QFileInfo12makeAbsoluteEv
_ZN8QVariantC1Ei
_ZN14QReadWriteLock15tryLockForWriteEv
_ZN5QFile4openE6QFlagsIN9QIODevice12OpenModeFlagEE
_ZN8QVariantC1Ej
_ZN10QTextCodecD0Ev
_ZN9QMimeDataC2Ev
_ZN27QDynamicPropertyChangeEventD1Ev
_ZN9QDateTimeC1Ev
_ZN16QIODevicePrivateC2Ev
_ZN13QPluginLoaderC2EP7QObject
_ZN16QCoreApplication21setOrganizationDomainERK7QString
_ZNK8QProcess12bytesToWriteEv
_ZN8QLibraryC2ERK7QStringP7QObject
_ZNK13QSystemLocale14fallbackLocaleEv
_ZN9QTimeLine11qt_metacastEPKc
_ZNK8QProcess11readChannelEv
_ZN18QCryptographicHashD2Ev
_ZTV16QTextCodecPlugin
_ZN11QTextStream4seekEx
_ZN8QVariantC1Ex
_Zls6QDebugPK7QObject
_ZN8QVariantC1Ey
_ZNK11QMetaMethod3tagEv
_ZNK4QDir9entryListE6QFlagsINS_6FilterEES0_INS_8SortFlagEE
_ZTI27QEventDispatcherGlibPrivate
_ZN18QAbstractItemModelC2ER25QAbstractItemModelPrivateP7QObject
_ZNK12QDirIterator8fileInfoEv
_ZN11QThreadData7currentEv
_ZN5QFileC1ERK7QString
_ZNK8QVariant6toTimeEv
_ZN12QDirIteratorC1ERK7QString6QFlagsIN4QDir6FilterEES3_INS_12IteratorFlagEE
_ZNK11QMetaObject12userPropertyEv
_ZN7QString6removeEii
_ZN7QBufferD1Ev
_ZN9QIODevice4peekEx
_ZN7QString6appendERK13QLatin1String
_ZN5QFile4seekEx
_ZNK4QDir6filterEv
_ZN9QFileInfoC2ERK7QString
_ZTV8QLibrary
_ZNK4QUrl10queryItemsEv
_ZN11QMetaObject8addGuardEPP7QObject
_ZNK9QIODevice10isReadableEv
_ZN5QChar9directionEj
_ZNK7QLocale8toStringEx
_ZNK7QLocale8toStringEy
_ZN18QAbstractItemModelC1EP7QObject
_ZN5QChar7toUpperEj
_ZN8QProcess19waitForBytesWrittenEi
_ZN16QCoreApplication9argumentsEv
_ZNK15QDateTimeParser12parseSectionERK8QVariantiR7QStringiRNS_5StateEPi
_ZTS11QTranslator
_ZN7QThreadD1Ev
_ZN7QObject11qt_metacallEN11QMetaObject4CallEiPPv
_ZNK4QUrl7dirPathEv
_ZN7QString7replaceERKS_S1_N2Qt15CaseSensitivityE
_ZNK9QSettings8fileNameEv
_ZN5QFile10unsetErrorEv
_ZN8QLibraryC1EP7QObject
_Z7qgetenvPKc
_ZN5QChar9directionEt
_ZN5QChar7toUpperEt
_ZN9QIODevice16staticMetaObjectE
_ZN8QProcess7executeERK7QStringRK11QStringList
_ZNK10QByteArray5splitEc
_ZN20QEventDispatcherUNIXD0Ev
_ZN26QAbstractFileEngineHandlerD1Ev
_ZN12QLibraryInfo8licenseeEv
_ZN13QFontLaoCodecD0Ev
_ZN18QAbstractItemModel6submitEv
_ZN12QCustomEventC2EiPv
_ZN8QVariantC2EPKc
_ZN10QTextCodecC1Ev
_ZlsR11QDataStreamRK5QDate
_ZN9QBitArrayaNERKS_
_ZN9QSettings11qt_metacastEPKc
_ZNK9QSettings10metaObjectEv
_ZTI18QAbstractListModel
_ZNK11QMetaObject17indexOfEnumeratorEPKc
_ZN16QCoreApplication17installTranslatorEP11QTranslator
_ZNK5QFile10fileEngineEv
_ZNK8QVariant6toCharEv
_ZN18QAbstractItemModel10decodeDataEiiRK11QModelIndexR11QDataStream
_ZNK8QVariant6toSizeEv
_ZN10QByteArray6insertEic
_ZN13QSignalMapper3mapEP7QObject
_ZNK5QDate4yearEv
_ZN16QTextCodecPluginD2Ev
_ZN7QBufferC2EP7QObject
_ZNK9QIODevice12bytesToWriteEv
_ZN10QTextCodec17setCodecForLocaleEPS_
_ZN14QTemporaryFileC2EP7QObject
_ZNK13QFSFileEngine13caseSensitiveEv
_ZN10QByteArrayC1Eic
_ZTV9QMimeData
_ZN11QVectorData11shared_nullE
_ZN16QCoreApplicationD2Ev
_ZN9QMetaType8typeNameEi
_ZN16QCoreApplication15setLibraryPathsERK11QStringList
_ZN9QDateTimeD2Ev
_ZNK5QRect8containsERK6QPointb
_ZNK9QDateTime6daysToERKS_
_ZN8QProcess16staticMetaObjectE
_ZlsR11QDataStreamRK5QUuid
_ZNK5QDate10weekNumberEPi
_ZN14QObjectPrivate19_q_reregisterTimersEPv
_ZNK18QFileSystemWatcher11directoriesEv
_ZN13QFSFileEngine4linkERK7QString
_ZN7QThread11qt_metacastEPKc
_ZTV26QTextCodecFactoryInterface
_Z24qInstallPathTranslationsv
_ZNK4QUrl8hasQueryEv
_ZN13QFSFileEngine8rootPathEv
_ZN9QMetaType4loadER11QDataStreamiPv
_ZNK13QFSFileEngine7ownerIdEN19QAbstractFileEngine9FileOwnerE
_ZN8QVariantD2Ev
_ZN7QObjectC1EPS_PKc
_ZN5QTime6setHMSEiiii
_ZN9QtPrivate16QStringList_joinEPK11QStringListRK7QString
_ZN8QVariantC2ERK5QChar
_ZNK11QTsciiCodec18convertFromUnicodeEPK5QChariPN10QTextCodec14ConverterStateE
_ZN8QVariantC2ERK5QSize
_ZNK15QDateTimeParser14potentialValueERK7QStringiiiRK8QVarianti
_Z5qHashRK9QBitArray
_ZN18QAbstractItemModel13endInsertRowsEv
_ZN8QVariant7handlerE
_Z11noforcesignR11QTextStream
_ZTI6QEvent
_ZNK9QFileInfo13canonicalPathEv
_ZN8QMapData10createDataEv
_ZN21QObjectCleanupHandlerD0Ev
_ZN7QBuffer4seekEx
_ZN9QSettingsC1ERK7QStringNS_6FormatEP7QObject
_ZNK5QDate8toStringERK7QString
_ZNK9QResource5isDirEv
_ZN16QCoreApplication9exit_loopEv
_ZN13QFSFileEngineD0Ev
_Z12noforcepointR11QTextStream
_ZNK5QFile5errorEv
_ZN26QAbstractFileEngineHandlerC2Ev
_ZN13QPluginLoaderD1Ev
_ZNK5QDate10daysInYearEv
_ZN8QMapData11node_createEPPNS_4NodeEi
_Zls6QDebugRK4QUrl
_ZN8QVariantC2EN2Qt11GlobalColorE
_ZN5QFileC2ERK7QString
_Z37qRegisterStaticPluginInstanceFunctionPFP7QObjectvE
_ZN16QTextCodecPluginC2EP7QObject
_ZN8QVariantC2ERK5QRect
_ZN11QTranslatorD1Ev
_ZNK7QString8toLatin1Ev
_Z13qErrnoWarningPKcz
_ZN8QVariantC2ERK11QStringList
_ZN18QCryptographicHash4hashERK10QByteArrayNS_9AlgorithmE
_ZNK6QRectF8containsERK7QPointF
_ZNK10QByteArray8toBase64Ev
_ZNK4QDir16relativeFilePathERK7QString
_ZNK21QPersistentModelIndex6parentEv
_ZTV13QPluginLoader
_ZN18QAbstractItemModel10modelResetEv
_ZN17QByteArrayMatcherC2ERK10QByteArray
_ZN14QLocalePrivate19bytearrayToLongLongEPKciPbS2_
_ZNK5QTime4msecEv
_Zls6QDebugRK6QRectF
_ZN7QBufferC1EP10QByteArrayP7QObject
_ZN9QDateTime7setTimeERK5QTime
_ZN5QFile6existsERK7QString
_ZNK18QFileSystemWatcher10metaObjectEv
_ZNK7QString16updatePropertiesEv
_ZNK4QDir7dirNameEv
_ZlsR11QDataStreamRK8QVariant
_ZN16QCoreApplication13testAttributeEN2Qt20ApplicationAttributeE
_ZN10QTextCodecD2Ev
_ZN11QMetaObject8activateEP7QObjectiiPPv
_ZN10QByteArrayC1EPKci
_ZTS13QSignalMapper
_Z7qstrdupPKc
_ZTS16QCoreApplication
qt_disable_lowpriority_timers
_Z5qHashRK7QString
_ZNK9QMimeData7hasTextEv
_ZNK9QDateTime7addSecsEi
_ZNK5QDate5monthEv
_ZN9QIODevice18setTextModeEnabledEb
_ZN11QTranslator4loadERK7QStringS2_S2_S2_
_ZNK18QAbstractItemModel5buddyERK11QModelIndex
_ZN9QMimeData5clearEv
_Z6qDebugPKcz
_ZN13QSignalMapper6mappedEP7QWidget
_ZNK11QTextStream6stringEv
_ZNK15QDateTimeParser11getAmPmTextENS_4AmPmENS_4CaseE
_ZN16QSegfaultHandler8callbackE
_ZN8QVariantC1ERK9QDateTime
_ZNK8QVariant7toSizeFEv
_ZNK14QFactoryLoader4keysEv
_ZNK14QTemporaryFile8fileNameEv
_ZN4QUrl11setUserInfoERK7QString
_ZNK4QUrl11hasFragmentEv
_ZN10QByteArray7replaceERKS_S1_
_ZN13QFSFileEngine4openE6QFlagsIN9QIODevice12OpenModeFlagEEi
_ZN8QProcessC1EP7QObject
_ZN10QMutexPoolC2Ebi
_ZN21QObjectCleanupHandlerC1Ev
_Z2wsR11QTextStream
_ZNK7QObject6senderEv
_ZN14QFactoryLoaderC1EPKcRK11QStringListRK7QStringN2Qt15CaseSensitivityE
_ZN9QListData6removeEii
_ZN9QIODevice7readAllEv
_ZN10QEventLoop4quitEv
_ZNK7QString3argEyiiRK5QChar
_ZN13QFSFileEngineC1Ev
_ZNK4QUrl10isParentOfERKS_
_ZNK4QDir10isRelativeEv
_ZN18QAbstractItemModelC1ER25QAbstractItemModelPrivateP7QObject
_ZNK19QAbstractTableModel11hasChildrenERK11QModelIndex
_ZN4QUrl9setSchemeERK7QString
_ZNK9QIODevice14bytesAvailableEv
_ZN14QStringMatcherC1Ev
_ZN13QFSFileEngine9extensionEN19QAbstractFileEngine9ExtensionEPKNS0_15ExtensionOptionEPNS0_15ExtensionReturnE
_ZNK7QString7indexOfERKS_iN2Qt15CaseSensitivityE
_ZNK11QMetaMethod10attributesEv
_ZTI11QTsciiCodec
_ZN9QSettingsC1EP7QObject
_ZNK11QTextStream18realNumberNotationEv
_ZTV6QEvent
_ZN8QVariantC1ERK7QString
_ZN5QDate10fromStringERK7QStringN2Qt10DateFormatE
_ZN27QEventDispatcherUNIXPrivate8doSelectE6QFlagsIN10QEventLoop17ProcessEventsFlagEEP7timeval
_ZrsR11QDataStreamR8QVariant
_ZNK11QMetaObject13indexOfSignalEPKc
_ZNK5QDate8addYearsEi
_ZN20QEventDispatcherUNIXD2Ev
_ZN11QTextStream22setRealNumberPrecisionEi
_ZNK11QTextStream7padCharEv
_ZN13QFontLaoCodecD2Ev
_ZNK13QFSFileEngine14isRelativePathEv
_ZN5QFile6removeERK7QString
_ZN8QLibrary21setFileNameAndVersionERK7QStringi
_ZTS8QProcess
_ZN18QThreadStorageDataD1Ev
_ZNK9QTimeLine8durationEv
_ZNK14QObjectPrivate12receiverListEPKc
_ZN5QChar13decompositionEj
_ZN18QAbstractItemModel14columnsRemovedERK11QModelIndexii
_ZNK9QFileInfo10permissionE6QFlagsIN5QFile10PermissionEE
_ZN7QLocaleC1ERKS_
_ZNK11QMetaMethod10methodTypeEv
_ZNK4QUrl8userInfoEv
_ZN9QtPrivate18QStringList_filterEPK11QStringListRK7QRegExp
_ZN8QLibrary7resolveERK7QStringPKc
_ZN10QByteArray4chopEi
_ZN4QUrl11setFileNameERK7QString
_ZN8QLibrary6unloadEv
_ZN19QAbstractFileEngine4readEPcx
_ZN7QBuffer5closeEv
_ZN8QVariantC2ERKS_
_ZN16QCoreApplication18removePostedEventsEP7QObjecti
_ZN9QSettingsC2ERK7QStringNS_6FormatEP7QObject
_ZN11QDataStream11skipRawDataEi
_ZrsR11QDataStreamR6QSizeF
_ZTS12QCustomEvent
_ZNK13QMetaProperty12isResettableEv
_ZNK11QTranslator10metaObjectEv
_ZN9QSettings8endGroupEv
_ZN18QAbstractItemModel19modelAboutToBeResetEv
_ZN16QCoreApplication12setAttributeEN2Qt20ApplicationAttributeEb
_ZTS21QObjectCleanupHandler
_ZN9QtPrivate28QStringList_replaceInStringsEP11QStringListRK7QRegExpRK7QString
_Z7qMemSetPvij
_ZTI10QTextCodec
_ZN7QBuffer7setDataERK10QByteArray
_ZNK6QLineF6isNullEv
_ZNK10QTextCodec7aliasesEv
_ZN4QUrl15setEncodedQueryERK10QByteArray
_ZNK10QTextCodec11makeDecoderEv
_ZN19QAbstractFileEngine5flushEv
_ZNK7QString5countE5QCharN2Qt15CaseSensitivityE
_ZTI11QChildEvent
_ZN4QUrl19fromPercentEncodingERK10QByteArray
_ZNK4QDir10isReadableEv
_ZNK7QObject8userDataEj
_ZNK4QUrl11toLocalFileEv
_ZN8QProcess15waitForFinishedEi
_ZNK4QDir5countEv
_ZNK7QString7toUpperEv
_ZN21QObjectCleanupHandlerD2Ev
_ZN16QCoreApplication15applicationNameEv
_ZNK9QSettings11childGroupsEv
_ZN8QProcess7startedEv
_ZNK7QString6toUIntEPbi
_ZN13QFSFileEngineD2Ev
_ZN24QAbstractEventDispatcherD0Ev
_ZNK9QDateTime6isNullEv
_ZN7QString7reallocEi
_ZN8QProcess8finishedEi
_ZNK15QDateTimeParser9findMonthERK7QStringiiPS0_Pi
_ZN9QTimeLineD0Ev
_ZN21QObjectCleanupHandler3addEP7QObject
_ZTS7QBuffer
_ZN13QSignalMapper10setMappingEP7QObjectS1_
_ZN14QStringMatcherD2Ev
_ZN9QTimeLine5startEv
_ZN7QString7sprintfEPKcz
_ZNK13QFontLaoCodec4nameEv
_ZTI16QIODevicePrivate
_ZN7QString6numberEii
_ZNK17QByteArrayMatcher7indexInERK10QByteArrayi
_ZTV25QAbstractItemModelPrivate
_ZN7QString7reallocEv
_ZN9QResource11searchPathsEv
_Z9forcesignR11QTextStream
_ZTV14QObjectPrivate
_ZN9QSettings6removeERK7QString
_ZNK7QString7indexOfERK7QRegExpi
_ZNK11QTextStream3posEv
_ZN15QObjectUserDataD1Ev
_ZN13QPluginLoader16staticMetaObjectE
_Z9qt_assertPKcS0_i
_ZNK5QFile5atEndEv
_ZN7QBufferC1EP7QObject
_ZN20QEventDispatcherUNIXC1ER27QEventDispatcherUNIXPrivateP7QObject
_ZN12QTextDecoder9toUnicodeEPKci
_ZN14QTemporaryFileC1EP7QObject
_ZNK18QAbstractItemModel8mimeDataERK5QListI11QModelIndexE
_ZN5QFile8readLinkERK7QString
_ZN12QDirIteratorC1ERK7QString6QFlagsINS_12IteratorFlagEE
_ZN8QProcess16closeReadChannelENS_14ProcessChannelE
_ZN14QObjectPrivate11clearGuardsEP7QObject
_ZN11QTextStream9setDeviceEP9QIODevice
_ZN9QBitArray4fillEbii
_ZN18QAbstractListModelC1EP7QObject
_ZlsR11QDataStreamN8QVariant4TypeE
_ZTV27QEventDispatcherGlibPrivate
_ZNK9QMimeData10metaObjectEv
_ZNK19QAbstractFileEngine11errorStringEv
_ZN8QProcessD0Ev
_ZlsR11QDataStreamRK9QDateTime
_ZN20QEventDispatcherGlib11qt_metacallEN11QMetaObject4CallEiPPv
_ZN27QAbstractFileEngineIteratorD0Ev
_ZNK4QDir6existsERK7QString
_ZrsR11QDataStreamR5QLine
_ZN4QDirD1Ev
_ZN8QProcess5errorENS_12ProcessErrorE
_ZNK7QRegExp7patternEv
_ZTI27QEventDispatcherUNIXPrivate
_ZN11QTextStreamC2EP10QByteArray6QFlagsIN9QIODevice12OpenModeFlagEE
_ZN7QString6numberEji
_ZN4QUrl12idnWhitelistEv
_ZN10QEventLoop4execE6QFlagsINS_17ProcessEventsFlagEE
_ZN5QFile4copyERK7QStringS2_
_ZN8QVariantC2ERK5QDate
_Z20qt_qFindChild_helperPK7QObjectRK7QStringRK11QMetaObject
_ZNK20QEventDispatcherGlib10metaObjectEv
_ZN20QEventDispatcherGlibC1ER27QEventDispatcherGlibPrivateP7QObject
_ZN9QTimeLine14setCurrentTimeEi
_ZNK19QAbstractFileEngine5mkdirERK7QStringb
_ZTV13QSystemLocale
_Z15uppercasedigitsR11QTextStream
_ZN5QFile16staticMetaObjectE
_ZNK15QDateTimeParser11sectionNameEi
_ZNK15QDateTimeParser10fromStringERK7QStringP5QDateP5QTime
_ZN5QFile10encodeNameERK7QString
_ZTI15QSocketNotifier
_ZN9QListData6appendEv
_ZNK7QString8multiArgEiPPKS_
_ZN8QProcess8finishedEiNS_10ExitStatusE
_ZN8QVariantC2ERK9QDateTime
_ZN18QAbstractItemModel13insertColumnsEiiRK11QModelIndex
_ZN7QString9fromAsciiEPKci
_ZN7QThread7cleanupEv
_ZNK13QSystemLocale5queryENS_9QueryTypeE8QVariant
_ZNK13QMetaProperty10isWritableEv
_ZNK10QStringRef8toStringEv
_ZN4QDir13addSearchPathERK7QStringS2_
_ZNK7QString13latin1_helperEv
_ZN16QTextCodecPluginC1EP7QObject
_ZTI25QAbstractItemModelPrivate
_ZN7QString6insertEiRK13QLatin1String
_ZNK9QDateTime8toStringERK7QString
_Z9qsnprintfPcjPKcz
_ZN11QDataStreamC1EP9QIODevice
_ZN7QString6insertEiPK5QChari
_ZNK13QFSFileEngine3posEv
_ZN6QTimer5startEib
_ZN8QVariant10typeToNameENS_4TypeE
_ZN16QCoreApplication17removeLibraryPathERK7QString
_ZN9QFileInfoC1Ev
_ZN7QThread10terminatedEv
_ZNK15QDateTimeParser17checkIntermediateERK9QDateTimeRK7QString
_ZrsR11QDataStreamR5QTime
_ZN14QStringMatcheraSERKS_
_ZN7QStringC1EPK5QChari
_ZNK4QDir8filePathERK7QString
_ZNK8QLibrary9loadHintsEv
_ZNK11QMetaObject9classInfoEi
_ZN18QAbstractListModel16staticMetaObjectE
_ZN9QMimeData11qt_metacastEPKc
_ZNK10QByteArray5countEPKc
_ZTS13QFSFileEngine
_ZNK11QTranslator7isEmptyEv
_ZN12QDirIteratorC2ERK4QDir6QFlagsINS_12IteratorFlagEE
_ZN23QCoreApplicationPrivateC1ERiPPc
_ZNK21QPersistentModelIndex10internalIdEv
_ZNK18QAbstractItemModel19persistentIndexListEv
_ZN16QCoreApplication10enter_loopEv
_ZN19QAbstractTableModel11qt_metacastEPKc
_ZeqRK10QStringRefS1_
_ZN7QRegExp18setCaseSensitivityEN2Qt15CaseSensitivityE
_ZN11QTextStreamlsE5QChar
_ZN15QSocketNotifierC2EiNS_4TypeEP7QObject
_ZNK9QMetaEnum5valueEi
_ZN11QTextStream5resetEv
_ZNK15QDateTimeParser10getMaximumEv
_ZNK5QChar7isPrintEv
_ZN8QProcess19setWorkingDirectoryERK7QString
_ZN14QTemporaryFileC2ERK7QStringP7QObject
_ZN24QAbstractEventDispatcher12aboutToBlockEv
_ZNK14QObjectPrivate8isSenderEPK7QObjectPKc
_ZN20QEventDispatcherUNIX9interruptEv
_ZN5QTimeC1Eiiii
_ZN18QAbstractItemModel10insertRowsEiiRK11QModelIndex
_ZNK10QByteArray5rightEi
_ZN9QIODevice4seekEx
_ZN7QString6removeE5QCharN2Qt15CaseSensitivityE
_ZN7QBuffer6bufferEv
_ZN5QFile19setEncodingFunctionEPF10QByteArrayRK7QStringE
_Z16qt_check_pointerPKci
_ZN19QAbstractFileEngine14beginEntryListE6QFlagsIN4QDir6FilterEERK11QStringList
_ZNK18QAbstractListModel11hasChildrenERK11QModelIndex
_ZNK9QTimeLine8endFrameEv
_ZrsR11QDataStreamR6QLineF
_ZNK7QLocale13numberOptionsEv
_ZN14QStringMatcherC1ERK7QStringN2Qt15CaseSensitivityE
_ZNK5QChar16isLetterOrNumberEv
_ZThn8_NK16QTextCodecPlugin4keysEv
_ZN10QByteArray11shared_nullE
_ZN7QString6numberEli
_ZNK7QString5splitERK5QCharNS_13SplitBehaviorEN2Qt15CaseSensitivityE
_ZNK10QByteArray7trimmedEv
_ZTS16QIODevicePrivate
_ZNK5QFile8fileNameEv
_ZN7QThread5sleepEm
_ZN9QTimeLine13setFrameRangeEii
_ZNK5QRect8containsERKS_b
_ZN7QString4freeEPNS_4DataE
_ZN9QIODeviceD1Ev
_ZN14QMetaCallEvent13placeMetaCallEP7QObject
_ZN8QVariantC1ERK4QMapI7QStringS_E
_ZN11QDataStreamlsEPKc
_ZN20QEventDispatcherUNIX16staticMetaObjectE
_ZN14QTemporaryFileC1ERK7QString
_ZTI23QCoreApplicationPrivate
_ZN7QLocale20countriesForLanguageENS_8LanguageE
_ZNK8QLibrary10metaObjectEv
_Zls6QDebugRK11QModelIndex
_ZN24QAbstractEventDispatcherD2Ev
_ZNK9QMimeData4dataERK7QString
_ZN9QTimeLineD2Ev
_ZN9QListData7reallocEi
_ZN7QString7replaceERK7QRegExpRKS_
_ZN9QtPrivate16QStringList_sortEP11QStringList
_ZN18QCryptographicHash7addDataERK10QByteArray
_Z5qQNaNv
_ZN14QMetaCallEventD0Ev
_ZN5QFile6resizeERK7QStringx
_ZN9QSettings16setSystemIniPathERK7QString
_ZN5QTime5startEv
_ZN16QCoreApplication18removePostedEventsEP7QObject
_ZNK13QFSFileEngine9fileFlagsE6QFlagsIN19QAbstractFileEngine8FileFlagEE
qt_global_mutexpool
_ZNK9QSettings8containsERK7QString
_ZN7QString8fromUcs4EPKji
_ZNK11QMetaObject13indexOfMethodEPKc
_ZNK5QTime6secondEv
_ZN9QListData6insertEi
_Z18qRemovePostRoutinePFvvE
_ZTS7QObject
_ZNK14QTemporaryFile10metaObjectEv
_ZN8QLibrary11qt_metacallEN11QMetaObject4CallEiPPv
_ZN18QAbstractItemModel15columnsInsertedERK11QModelIndexii
_ZNK11QTextStream11numberFlagsEv
_ZN6QTimer5startEi
_ZN14QUnicodeTables10propertiesEj
_ZN7QString6numberEmi
_ZNK15QDateTimeParser5parseERK7QStringRK8QVariantb
_ZN11QTextStream9setStringEP7QString6QFlagsIN9QIODevice12OpenModeFlagEE
_ZN10QEventLoop11qt_metacastEPKc
_ZrsR11QDataStreamR9QDateTime
_ZN16QCoreApplication19applicationFilePathEv
_ZN4QUrl13setQueryItemsERK5QListI5QPairI7QStringS2_EE
_ZNK27QAbstractFileEngineIterator15currentFilePathEv
_ZN8QLibrary11setFileNameERK7QString
_ZN9QFileInfoD2Ev
_ZNK7QLocale8toStringERK5QDateNS_10FormatTypeE
_ZN14QUnicodeTables10propertiesEt
_ZN20QEventDispatcherUNIX14activateTimersEv
_ZN25QAbstractItemModelPrivate20rowsAboutToBeRemovedERK11QModelIndexii
_ZN11QTextStream21setRealNumberNotationENS_18RealNumberNotationE
_ZN6QTimer5startEv
_ZNK9QFileInfo8isBundleEv
_ZNK13QMetaProperty8isStoredEPK7QObject
_ZNK4QUrl7isValidEv
_ZN8QProcessD2Ev
_ZN27QAbstractFileEngineIteratorD2Ev
_ZNK21QPersistentModelIndex3rowEv
_ZNK10QByteArray8endsWithEc
_ZN13QPluginLoader8instanceEv
_ZN14QMetaCallEventC2EiPK7QObjectiPiPPvP10QSemaphore
_ZN10QSemaphoreC1Ei
_ZNK10QTextCodec9toUnicodeERK10QByteArrayi
_ZN14QFactoryLoaderD1Ev
_ZN9QIODeviceC2Ev
_ZN4QDir5matchERK11QStringListRK7QString
_ZNK10QByteArray7toFloatEPb
_ZN14QUnicodeTables14lineBreakClassEj
_ZN12QLibraryInfoC2Ev
_ZN23QCoreApplicationPrivate13notify_helperEP7QObjectP6QEvent
_ZN7QObject7connectEPKS_PKcS1_S3_N2Qt14ConnectionTypeE
_ZN11QTextStreamC1EP9QIODevice
_ZN9QIODevice4peekEPcx
_ZNK7QString3argE5QChariRKS0_
_ZN8QVariantC1ERK7QLocale
_ZNK6QLineF5angleERKS_
_ZN9QSettings4syncEv
_ZNK8QVariant8userTypeEv
_ZN18QFileSystemWatcher11removePathsERK11QStringList
_ZN8QVariantC1ERK4QUrl
_ZNK14QLocalePrivate14stringToDoubleERK7QStringPbNS_18GroupSeparatorModeE
_ZN9QBitArrayC2Eib
_ZNK8QVariant6toLineEv
_ZNK21QPersistentModelIndex5flagsEv
_ZN7QRegExp11errorStringEv
_ZN12QLibraryInfo8locationENS_15LibraryLocationE
_ZNK8QVariant5toUrlEv
_ZN9QSettingsC1ENS_6FormatENS_5ScopeERK7QStringS4_P7QObject
_ZNK11QTextStream10fieldWidthEv
_ZNK4QUrl8resolvedERKS_
_ZNK11QMetaMethod14parameterTypesEv
_ZNK9QFileInfo14completeSuffixEv
_ZN7QString4growEi
_ZNK7QString18localeAwareCompareERKS_
_ZN9QTimeLine8finishedEv
_ZN24QAbstractEventDispatcher5awakeEv
_ZN7QString7replaceE5QCharS0_N2Qt15CaseSensitivityE
_ZN7QObject10startTimerEi
_ZN18QAbstractItemModel17headerDataChangedEN2Qt11OrientationEii
_ZanRK9QBitArrayS1_
_ZN14QTemporaryFileD1Ev
_ZNK4QUrl8fragmentEv
_ZlsR11QDataStreamRK5QLine
_ZN9QResource11setFileNameERK7QString
_ZN9QDateTime7setDateERK5QDate
_ZN10QByteArray7prependEc
_ZN4QDir15setMatchAllDirsEb
_ZN10QByteArrayC1EPKc
_ZTV24QAbstractEventDispatcher
_ZN19QAbstractFileEngineD0Ev
_ZN14QTemporaryFileC2ERK7QString
_ZN4QUrlD1Ev
_ZN13QPluginLoader11qt_metacallEN11QMetaObject4CallEiPPv
_ZN14QReadWriteLock12lockForWriteEv
_ZNK13QMetaProperty5writeEP7QObjectRK8QVariant
_ZNK10QByteArray8toDoubleEPb
_ZN18QAbstractListModelD0Ev
_ZN15QLinkedListData11shared_nullE
_ZN9QTimeLine4stopEv
_ZNK7QStringgtERK13QLatin1String
_ZN10QEventLoopD1Ev
_ZTV20QEventDispatcherUNIX
_ZTI19QAbstractTableModel
_ZTV14QFactoryLoader
_ZTI9QSettings
_Z5qdtoadiiPiS_PPcS1_
_ZN20QEventDispatcherGlib13registerTimerEiiP7QObject
_ZN5QUuidC1ERK7QString
_ZN7QObject9killTimerEi
_ZN4QUrl13fromLocalFileERK7QString
_ZN7QRegExpC1Ev
_ZN14QStringMatcherC1ERKS_
_ZN12QCustomEventD1Ev
_Z11qt_int_sqrtj
_ZN6QEventC2ENS_4TypeE
_ZN13QFSFileEngine5flushEv
_ZNK9QResource4dataEv
_ZTV9QIODevice
_ZN18QThreadStorageData6finishEPPv
_ZN13QPluginLoader11qt_metacastEPKc
_ZN5QFileC2ERK7QStringP7QObject
_ZNK9QDateTimeeqERKS_
_ZTV16QIODevicePrivate
_ZN19QAbstractTableModel16staticMetaObjectE
_ZTV9QTimeLine
_ZNK9QMimeData8hasColorEv
qMetaTypeGuiHelper
_ZNK9QIODevice4sizeEv
_ZN5QChar14unicodeVersionEj
_ZNK6QPoint15manhattanLengthEv
_ZN15QSocketNotifier16staticMetaObjectE
_ZNK8QVariant6toRectEv
_ZN7QThread4quitEv
_ZlsR11QDataStreamRK5QTime
_ZN13QSignalMapper6mappedEi
_ZN14QObjectPrivateD1Ev
_ZNK13QFSFileEngine9entryListE6QFlagsIN4QDir6FilterEERK11QStringList
_ZNK4QUrl14queryItemValueERK7QString
_ZN8QVariantC1ERK9QBitArray
_ZN10QSemaphoreD2Ev
_ZN10QByteArray6insertEiRKS_
_ZN19QAbstractFileEngine4copyERK7QString
_ZN14QMetaCallEventD2Ev
_ZN5QChar14unicodeVersionEt
_ZNK5QTime8toStringEN2Qt10DateFormatE
_ZN14QTemporaryFileC2Ev
_ZN14QTemporaryFile15setFileTemplateERK7QString
_ZNK7QLocale11exponentialEv
_ZNK5QRectorERKS_
_ZTI11QTranslator
_ZN8QVariantC2EiPKv
_ZNK11QMetaMethod9signatureEv
_ZN9QDateTimeaSERKS_
_ZN19QAbstractTableModelC2EP7QObject
_ZN18QAbstractListModelC1ER25QAbstractItemModelPrivateP7QObject
_ZNK11QMetaObject4castEP7QObject
_ZN19QAbstractFileEngineC1Ev
_ZNK12QTextDecoder10hasFailureEv
_ZN5QFile11permissionsERK7QString
_ZN12QDirIteratorC1ERK4QDir6QFlagsINS_12IteratorFlagEE
_ZN9QSettings16staticMetaObjectE
_ZNK14QFactoryLoader8instanceERK7QString
_ZN4QUrlC2Ev
_ZNK8QVariant8toLocaleEv
_ZNK9QFileInfoeqERKS_
_ZN12QLibraryInfo8buildKeyEv
_ZN5QDate11longDayNameEi
_ZNK19QAbstractFileEngine14isRelativePathEv
_ZNK7QString5toIntEPbi
_ZN5QChar7joiningEj
_ZN23QCoreApplicationPrivate13theMainThreadE
_ZN16QTextCodecPlugin16staticMetaObjectE
_ZNK4QDir7sortingEv
_ZTS11QDataStream
_ZTV15QSocketNotifier
_ZN9QFileInfo10setCachingEb
_ZN14QFactoryLoader11qt_metacastEPKc
_ZN11QMetaObject18connectSlotsByNameEP7QObject
_ZN5QFileD1Ev
_ZN16QCoreApplication4argcEv
_ZTS9QMimeData
_ZNK14QTemporaryFile12fileTemplateEv
_ZN8QVariant7convertENS_4TypeE
_ZN5QChar7joiningEt
_ZN9QIODevice5resetEv
_ZNK9QFileInfo7groupIdEv
_ZN16QCoreApplicationC2ERiPPc
_ZN19QAbstractTableModel11qt_metacallEN11QMetaObject4CallEiPPv
_ZN7QObject12blockSignalsEb
_ZTS15QSocketNotifier
_ZNK8QVariant10toBitArrayEv
_ZN9QFileInfoaSERKS_
_ZN14QObjectPrivateC2Ei
_ZNK9QTimeLine11currentTimeEv
_ZN7QObject10timerEventEP11QTimerEvent
_ZTV5QFile
_ZNK7QString7toULongEPbi
_ZNK8QProcess11canReadLineEv
_ZNK5QUuid6isNullEv
_ZNK10QByteArray5toIntEPbi
_ZN11QTsciiCodecD0Ev
_Z10scientificR11QTextStream
_ZN4QUrl13setEncodedUrlERK10QByteArrayNS_11ParsingModeE
_ZNK10QSemaphore9availableEv
_ZN14QLocalePrivate22bytearrayToUnsLongLongEPKciPb
_ZNK13QMetaProperty4typeEv
_ZNK5QTime7msecsToERKS_
_ZN9QResource18unregisterResourceEPKhRK7QString
_ZN7QObject16registerUserDataEv
_ZTV21QObjectCleanupHandler
_ZN10QEventLoop13processEventsE6QFlagsINS_17ProcessEventsFlagEEi
_ZN7QRegExpD2Ev
_ZNK5QRect10normalizedEv
_ZN9QMimeData7setHtmlERK7QString
_ZN11QDataStream11readRawDataEPci
_ZN5QDate17julianToGregorianEjRiS0_S0_
_ZN7QThread11setPriorityENS_8PriorityE
_ZN4QUrl7setPortEi
_ZN16QCoreApplication14setEventFilterEPFbPvPlE
_ZN11QTranslator4loadEPKhi
_ZNK10QByteArray10startsWithEPKc
_ZN11QMetaObject14normalizedTypeEPKc
_ZNK5QChar7isSpaceEv
_ZN8QVariantC1ERK5QListIS_E
_ZNK8QProcess11environmentEv
_ZNK4QDir16absoluteFilePathERK7QString
_ZN12QTextDecoder9toUnicodeEP7QStringPKci
_ZN13QSignalMapper14removeMappingsEP7QObject
_ZNK9QSettings10isWritableEv
_ZNK8QLibrary8fileNameEv
_ZN10QEventLoop13processEventsE6QFlagsINS_17ProcessEventsFlagEE
_ZNK20QEventDispatcherUNIX16registeredTimersEP7QObject
_ZN18QFileSystemWatcher8addPathsERK11QStringList
_ZN8QProcess5startERK7QStringRK11QStringList6QFlagsIN9QIODevice12OpenModeFlagEE
_ZN5QUuidC2ERK7QString
_ZN5QChar11toTitleCaseEj
_ZN8QProcess5closeEv
_ZTS14QTemporaryFile
_ZN11QTextStreamC2EP7QString6QFlagsIN9QIODevice12OpenModeFlagEE
_ZNK7QString3argEciRK5QChar
_ZN18QAbstractItemModel23columnsAboutToBeRemovedERK11QModelIndexii
_ZNK5QChar13decompositionEv
_ZNK4QDir12absolutePathEv
_ZN8QVariantC1ERK7QRegExp
_ZN9QSettings14beginReadArrayERK7QString
_ZNK7QString10toLongLongEPbi
_ZTI14QTemporaryFile
_ZN5QFileC2Ev
_ZNK9QResource8fileNameEv
_ZN14QMetaCallEventC1EiPK7QObjectiiiPiPPvP10QSemaphore
_ZlsR11QDataStreamRK6QSizeF
_ZN5QChar11toTitleCaseEt
_ZNK10QByteArray11lastIndexOfEci
_ZNK9QMetaEnum4nameEv
_ZN9QBitArrayeOERKS_
_ZN19QAbstractFileEngineD2Ev
_ZNK10QByteArray11lastIndexOfERKS_i
_ZN11QTimerEventD1Ev
_ZN20QEventDispatcherGlib6wakeUpEv
_ZN27QEventDispatcherGlibPrivateC2EP13_GMainContext
_ZN21QPersistentModelIndexC1Ev
_ZN9QResource16registerResourceEPKhRK7QString
_ZN8QVariantC2ERK4QUrl
_ZN7QString9fromUtf16EPKti
_ZN9QResourceC2ERK7QStringRK7QLocale
_ZNK18QAbstractItemModel4spanERK11QModelIndex
_ZN11QTextStream8setCodecEP10QTextCodec
_ZN18QAbstractListModelD2Ev
_ZN13QMetaPropertyC2Ev
_ZN9QResourceD2Ev
_ZNK9QDateTime7isValidEv
_ZNK6QTimer10metaObjectEv
_ZN8QVariant6detachEv
_ZN9QSettingsD0Ev
_ZNK9QTimeLine10metaObjectEv
_ZN10QTextCodec13availableMibsEv
_ZTI18QAbstractItemModel
_ZN14QReadWriteLockC1Ev
_ZN7QObject17removeEventFilterEPS_
_ZNK7QString10normalizedENS_17NormalizationFormE
_ZNK7QString7sectionERKS_ii6QFlagsINS_11SectionFlagEE
_ZN23QCoreApplicationPrivate16sendPostedEventsEP7QObjectiP11QThreadData
_ZN18QAbstractItemModel22layoutAboutToBeChangedEv
_ZNK13QMetaProperty12hasStdCppSetEv
_ZN16QCoreApplication16staticMetaObjectE
_ZN7QObjectC2ER14QObjectPrivatePS_
_ZN16QCoreApplication13processEventsE6QFlagsIN10QEventLoop17ProcessEventsFlagEEi
_ZN5QFile4linkERK7QStringS2_
_ZN4QDir11searchPathsERK7QString
_ZN7QObject13setObjectNameERK7QString
_ZN18QAbstractItemModel11rowsRemovedERK11QModelIndexii
_ZN7QThread15currentThreadIdEv
_ZN7QBufferC2EP10QByteArrayP7QObject
_ZN5QChar9fromAsciiEc
_ZN9QTimeLine6resumeEv
_ZNK13QFontLaoCodec16convertToUnicodeEPKciPN10QTextCodec14ConverterStateE
_ZN19QAbstractFileEngine4linkERK7QString
_ZTI13QSignalMapper
_ZNK5QChar14unicodeVersionEv
_ZN18QFileSystemWatcher11qt_metacallEN11QMetaObject4CallEiPPv
_ZN7QObjectC2EPS_
_ZN13QFSFileEngine6removeEv
_ZN4QUrl19removeAllQueryItemsERK7QString
_ZN13QSignalMapperD1Ev
_ZN8QLibrary7resolveERK7QStringiPKc
_Z21qt_call_post_routinesv
_ZNK7QBuffer4sizeEv
_ZN20QEventDispatcherUNIXC2ER27QEventDispatcherUNIXPrivateP7QObject
_ZNK8QLibrary8isLoadedEv
_ZN10QByteArray8truncateEi
_ZN18QAbstractItemModel16staticMetaObjectE
_ZN9QResourceC1ERK7QStringRK7QLocale
_fini
_ZNK7QString7toShortEPbi
_ZN4QDir5matchERK7QStringS2_
_ZN11QMetaObject10disconnectEPK7QObjectiS2_i
_Z10qAllocMoreii
_ZN11QTimerEventC2Ei
_ZN11QTextStream13setFieldWidthEi
_ZN4QUrl11fromEncodedERK10QByteArrayNS_11ParsingModeE
_ZN14QWaitCondition7wakeAllEv
_ZTI13QSystemLocale
_ZNK13QMetaProperty12isScriptableEPK7QObject
 _ZN6QEventD0Ev
 _ZThn8_N16QTextCodecPluginD0Ev
 _ZNK9QFileInfo6isRootEv
 _ZN14QWaitConditionC1Ev
 _ZNK9QIODevice11errorStringEv
 _ZN18QAbstractItemModelD1Ev
 _ZNK9QFileInfo7createdEv
 _ZTV19QAbstractTableModel
 _ZN7QThread6msleepEm
 _ZN14QTemporaryFile11qt_metacallEN11QMetaObject4CallEiPPv
 _ZTS20QEventDispatcherGlib
 _ZN20QEventDispatcherGlibC2ER27QEventDispatcherGlibPrivateP7QObject
 _ZN25QAbstractItemModelPrivate21rowsAboutToBeInsertedERK11QModelIndexii
 _Z3hexR11QTextStream
 _ZN10QByteArray7replaceEiiRKS_
 _ZN11QDataStream9readBytesERPcRj
 _ZN18QAbstractItemModel25changePersistentIndexListERK5QListI11QModelIndexES4_
 _ZN8QVariantC2ERK9QBitArray
 _ZN7QObject10childEventEP11QChildEvent
 _ZTI26QAbstractFileEngineHandler
 _Z14qSystemWarningPKci
 _ZNK21QPersistentModelIndex6columnEv
 _Z10qvsnprintfPcjPKcS_
 _ZNK11QTextStream19realNumberPrecisionEv
 _ZNK9QIODevice6isOpenEv
 _ZN16QCoreApplication4execEv
 _ZN11QTextStreamrsEPc
 _ZNK18QAbstractListModel5indexEiiRK11QModelIndex
 qt_startup_hook
 _ZN14QObjectPrivate32removePendingChildInsertedEventsEP7QObject
 _ZN18QAbstractListModel12dropMimeDataEPK9QMimeDataN2Qt10DropActionEiiRK11QModelIndex
 _ZN9QDateTimeC1ERKS_
 _ZN18QAbstractItemModel23setSupportedDragActionsE6QFlagsIN2Qt10DropActionEE
 _ZN5QDate11currentDateEv
 _ZNK5QRectanERKS_
 _ZN21QPersistentModelIndexD2Ev
 _ZNK9QFileInfo10isRelativeEv
 _ZN7QString7replaceEii5QChar
 _ZN14QLocalePrivate17bytearrayToDoubleEPKcPbS2_
 _ZN14QWaitCondition4waitEP6QMutexm
 _ZNK5QTime7isValidEv
 _ZN20QEventDispatcherGlibC2EP13_GMainContextP7QObject
 _ZN14QReadWriteLockD2Ev
 _ZrsR11QDataStreamR6QPoint
 _ZNK9QFileInfo6existsEv
 _ZN11QTsciiCodecD2Ev
 _ZNK4QUrl10isRelativeEv
 _ZNK14QLocalePrivate19unsLongLongToStringEyiiij
 _ZN8QVariantC2ERK5QLine
 _ZN18QFileSystemWatcher10removePathERK7QString
 _ZTV11QTextStream
 _ZNK9QMimeData9colorDataEv
 _ZNK9QResource12isCompressedEv
 _ZNK9QTimeLine12currentFrameEv
 _ZNK7QString8endsWithERK5QCharN2Qt15CaseSensitivityE
 _ZN7QStringC1E5QChar
 _ZN23QCoreApplicationPrivateD0Ev
 _ZNK18QCryptographicHash6resultEv
 _ZN4QDir10setSortingE6QFlagsINS_8SortFlagEE
 _ZN9QResource18unregisterResourceERK7QStringS2_
 _ZN19QAbstractTableModelD0Ev
 _ZN14QObjectPrivate16setParent_helperEP7QObject
 qt_allTopLevelWidgets
 _ZN7QObject13connectNotifyEPKc
 _ZN5QFile6renameERK7QString
 _ZN16QCoreApplication4argvEv
 _ZN9QIODevice12bytesWrittenEx
 _ZN23QCoreApplicationPrivate17removePostedEventEP6QEvent
 _ZNK7QObject6threadEv
 _ZN20QEventDispatcherUNIX11qt_metacastEPKc
 _ZNK7QString7toFloatEPb
 _Z9qIsFinited
 _ZN9QFileInfoC1ERKS_
 _ZN9QMetaType7destroyEiPv
 _Z9qIsFinitef
 _ZNK11QMetaObject6methodEi
 _ZNK5QChar8isNumberEv
 _ZN7QRegExpC2ERK7QStringN2Qt15CaseSensitivityENS_13PatternSyntaxE
 _ZN7QString12shared_emptyE
 _ZN20QEventDispatcherUNIX24unregisterSocketNotifierEP15QSocketNotifier
 _ZN9QMimeData7setTextERK7QString
 _ZNK4QDir6mkpathERK7QString
 _ZN20QEventDispatcherUNIX13processEventsE6QFlagsIN10QEventLoop17ProcessEventsFlagEE
 _ZN10QMutexPoolD1Ev
 _ZNK14QLocalePrivate16longLongToStringExiiij
 _ZNK7QRegExp10exactMatchERK7QString
 _ZNK8QProcess15readChannelModeEv
 _ZNK7QString6toUcs4Ev
 _ZN6QTimerC1EP7QObjectPKc
 _ZNK5QFile11permissionsEv
 _ZN5QUuidC1EPKc
 _ZN11QTextStream20setAutoDetectUnicodeEb
 _ZN8QVariantC2ERK5QListIS_E
 _ZTI21QObjectCleanupHandler
 _ZN13QFSFileEngine5closeEv
 _ZTI15QDateTimeParser
 _ZN19QAbstractFileEngine8readLineEPcx
 _ZN4QUrl5toAceERK7QString
 _ZNK10QByteArray14rightJustifiedEicb
 _ZN11QDataStreamD1Ev
 _ZN6QTimer10timerEventEP11QTimerEvent
 _ZN14QWaitConditionD2Ev
 _ZlsR11QDataStreamRK6QLineF
 _ZNK7QLocale7percentEv
 _ZNK9QFileInfo10isReadableEv
 _ZN8QVariantC2ERK5QTime
 _ZN13QFSFileEngine4openE6QFlagsIN9QIODevice12OpenModeFlagEEP8_IO_FILE
 _ZN16QCoreApplication4exitEi
 _ZN25QAbstractItemModelPrivate10invalidateEi
 _ZN12QDirIteratorC2ERK7QString6QFlagsIN4QDir6FilterEES3_INS_12IteratorFlagEE
 _ZN9QResource16registerResourceERK7QStringS2_
 _ZTS5QFile
 _ZN9QSettingsD2Ev
 _ZN11QTextStreamrsERc
 _ZNK7QObject5childEPKcS1_b
 _ZN11QTextStreamrsERd
 _ZN10QTextCodec15availableCodecsEv
 _ZTS18QAbstractItemModel
 _ZN14QStringMatcher18setCaseSensitivityEN2Qt15CaseSensitivityE
 _ZN8QLibraryD1Ev
 _ZN11QTextStreamrsERf
 _ZN9QIODevice19waitForBytesWrittenEi
 _ZN11QDataStreamC1EP10QByteArray6QFlagsIN9QIODevice12OpenModeFlagEE
 _ZN11QTextStreamrsERi
 _ZTV27QAbstractFileEngineIterator
 _ZN11QTextStreamrsERj
 _ZN7QThread6usleepEm
 _ZN16QCoreApplication11closingDownEv
 _edata
 _ZNK5QFile6handleEv
 _ZN11QTextStreamrsERl
 _ZN13QSignalMapper10setMappingEP7QObjectP7QWidget
 _ZNK9QBitArraycoEv
 _ZrsR11QDataStreamR9QBitArray
 _ZN11QTextStreamrsERm
 _ZNK8QVariant10toDateTimeEv
 _ZNK8QProcess5stateEv
 _ZN11QTextStreamrsERs
 _ZN9QDateTimeC1ERK5QDate
 _ZN18QThreadStorageDataC1EPFvPvE
 _ZN11QTextStreamrsERt
 _ZN8QProcess20setStandardInputFileERK7QString
 _ZN7QObjectD0Ev
 _ZN20QEventDispatcherGlib11qt_metacastEPKc
 _ZN11QTextStreamC2EP8_IO_FILE6QFlagsIN9QIODevice12OpenModeFlagEE
 _ZN7QObject18installEventFilterEPS_
 _ZN11QTextStreamrsERx
 _ZN11QTextStreamrsERy
 _ZN7QThread16idealThreadCountEv
 _ZTI8QLibrary
 _ZNK8QProcess8exitCodeEv
 _ZN8QVariantC1ERK13QLatin1String
 _ZNK9QMimeData9imageDataEv
 _ZNK15QDateTimeParser11sectionTextERK7QStringii
 _ZN16QCoreApplication11filterEventEPvPl
 _ZN7QString6numberExi
 _ZN7QThreadC1ER14QThreadPrivateP7QObject
 _Z7qstrcmpPKcS0_
 _ZN7QThread13currentThreadEv
 _ZNK5QChar7isDigitEv
 _ZN7QObject11deleteLaterEv
 _ZN15QSocketNotifierD0Ev
 _ZNK4QUrl4portEi
 _Z3decR11QTextStream
 _ZN11QMetaObject7connectEPK7QObjectiS2_iiPi
 _ZN8QVariantC1ENS_4TypeE
 _ZNK7QObject8propertyEPKc
 _ZN11QTextStream14setIntegerBaseEi
 _ZN6QEventD2Ev
 _Z16qInstallPathBinsv
 _ZNK4QDir7refreshEv
 _ZTI7QThread
 _ZNK7QString10startsWithERK5QCharN2Qt15CaseSensitivityE
 _ZNK13QFSFileEngine5rmdirERK7QStringb
 _ZNK5QFile6existsEv
 _ZN7QLocaleC1ERK7QString
 _ZN11QDataStreamC2Ev
 _ZN9QIODevice9readyReadEv
 _ZN6QTimer16staticMetaObjectE
 _ZNK5QFile4sizeEv
 _ZNK21QPersistentModelIndexeqERKS_
 _ZN10QMutexPool8instanceEv
 _ZNK4QUrl4portEv
 _ZN16QCoreApplication16organizationNameEv
 _ZN9QIODevice7getCharEPc
 _ZN8QProcess22readyReadStandardErrorEv
 _ZN18QAbstractItemModel21rowsAboutToBeInsertedERK11QModelIndexii
 _ZNK7QString14rightJustifiedEi5QCharb
 _ZNK9QDateTime4dateEv
 _ZN9QConfFileC1ERK7QStringb
 _ZNK9QDateTime8toStringEN2Qt10DateFormatE
 _ZTV11QTimerEvent
 _ZN8QProcess17setupChildProcessEv
 _ZN7QString6numberEyi
 _ZN13QPluginLoaderC1ERK7QStringP7QObject
 _ZN12QCustomEventC1EiPv
 _ZTI6QTimer
 _ZN8QVariantC1EPKc
 _ZN4QDir21nameFiltersFromStringERK7QString
 _ZlsR11QDataStreamRK7QString
 _ZN16QCoreApplicationC1ER23QCoreApplicationPrivate
 _ZN8QProcess4killEv
 _ZNK21QPersistentModelIndex4dataEi
 _ZNK18QAbstractItemModel10encodeDataERK5QListI11QModelIndexER11QDataStream
 _ZN5QDate10isLeapYearEi
 _ZNK4QUrl9toEncodedE6QFlagsINS_16FormattingOptionEE
 _ZN13QSignalMapper10setMappingEP7QObjectRK7QString
 _ZN15QSocketNotifierC1EiNS_4TypeEP7QObject
 _ZN7QString8truncateEi
 _ZN7QLocaleC1Ev
 _ZN11QChildEventD1Ev
 _ZNK6QRectForERKS_
 _ZN9QListData7prependEv
 _ZN23QCoreApplicationPrivateD2Ev
 _ZN14QTemporaryFile11qt_metacastEPKc
 _ZN18QAbstractListModel11qt_metacastEPKc
 _ZN19QAbstractTableModelD2Ev
 _ZNK9QMetaEnum6isFlagEv
 _ZNK5QChar7toLowerEv
 _ZN7QRegExp16setPatternSyntaxENS_13PatternSyntaxE
 _ZN9QTimeLineC2EiP7QObject
 _ZNK21QPersistentModelIndex7isValidEv
 _ZN10QByteArray6appendEPKc
 _init
 _ZNK4QDirixEi
 _ZN11QDataStreamC1EP10QByteArrayi
 _ZN4QDir21addResourceSearchPathERK7QString
 _ZNK9QMimeData9hasFormatERK7QString
 _ZN5QChar12toCaseFoldedEj
 _ZNK13QMetaProperty4readEPK7QObject
 _ZNK4QDir12matchAllDirsEv
 _ZNK9QFileInfo7cachingEv
 _ZN14QObjectPrivate15checkWindowRoleEv
 _ZNK5QChar8categoryEv
 _ZN5QDate12shortDayNameEi
 _ZN14QObjectPrivate20setThreadData_helperEP11QThreadDataS1_
 _ZN6QMutexD1Ev
 _ZNK21QObjectCleanupHandler10metaObjectEv
 _Zls6QDebugRK8QVariant
 _Zls6QDebug6QFlagsIN4QDir6FilterEE
 _ZN20QEventDispatcherGlibD1Ev
 _ZN7QRegExpC1ERKS_
 _ZN14QReadWriteLock11lockForReadEv
 _Z7qstrtodPKcPS0_Pb
 _ZNK9QMetaEnum8keyCountEv
 _Z17qt_message_output9QtMsgTypePKc
 _ZN12QSockNotTypeD1Ev
 _ZN4QUrlC1ERKS_
 _ZNK21QPersistentModelIndex15internalPointerEv
 _ZN11QMetaObject8activateEP7QObjectiPPv
 _ZN5QChar12toCaseFoldedEt
 _ZN9QTimeLine13setStartFrameEi
 _ZTS19QAbstractFileEngine
 _ZN8QVariantC1ERK7QPointF
 _ZN9QMimeData16staticMetaObjectE
 _ZN23QCoreApplicationPrivate14is_app_runningE
 _ZN13QSignalMapper6mappedERK7QString
 _ZNK9QTimeLine5stateEv
 _ZN12QTextDecoderD1Ev
 _ZN12QTextEncoder11fromUnicodeERK7QStringRi
 _ZNK9QFileInfo8lastReadEv
 _Z32qt_register_signal_spy_callbacksRK21QSignalSpyCallbackSet
 _ZN27QEventDispatcherUNIXPrivateD0Ev
 _ZN18QCryptographicHash7addDataEPKci
 _ZN4QDirC2ERK7QString
 _ZN16QCoreApplication15watchUnixSignalEib
 _ZN6QTimer11qt_metacastEPKc
 _ZN18QAbstractItemModel16endRemoveColumnsEv
 _ZNK9QIODevice10metaObjectEv
 _ZN11QVectorData4growEiiib
 _ZN18QFileSystemWatcherD1Ev
 _ZN11QDataStream9setDeviceEP9QIODevice
 _ZNK7QString7toLowerEv
 _ZN9QSettings10beginGroupERK7QString
 _ZNK4QUrl11errorStringEv
 _ZNK11QMetaObject2trEPKcS1_
 _ZN10QEventLoop16staticMetaObjectE
 _ZN18QFileSystemWatcher11fileChangedERK7QString
 _ZN13QSignalMapperC1EP7QObjectPKc
 _ZN20QEventDispatcherGlib16versionSupportedEv
 _ZN6QTimerC2EP7QObjectPKc
 _ZN11QMetaObject8activateEP7QObjectPKS_iiPPv
 _ZNK15QDateTimeParser13sectionFormatENS_7SectionEi
 _ZN20QEventDispatcherUNIX16unregisterTimersEP7QObject
 _ZN7QLocaleC2ERK7QString
 _ZN27QDynamicPropertyChangeEventC1ERK10QByteArray
 _ZN7QThread4waitEm
 _ZN13QPluginLoader6unloadEv
 _ZNK11QMetaObject2trEPKcS1_i
 _ZNK18QAbstractItemModel10headerDataEiN2Qt11OrientationEi
 _ZTS26QAbstractFileEngineHandler
 _ZNK7QString11toULongLongEPbi
 _ZTV6QTimer
 _ZTS19QAbstractTableModel
 _ZN23QCoreApplicationPrivate14is_app_closingE
 _ZN5QFile4linkERK7QString
 _ZNK11QTextStream17autoDetectUnicodeEv
 _ZN7QObjectD2Ev
 _Z4leftR11QTextStream
 _ZN24QAbstractEventDispatcherC1EP7QObject
 _ZN9QTimeLine11setDurationEi
 _ZN11QTextStream7readAllEv
 _ZN21QObjectCleanupHandler16staticMetaObjectE
 _ZN15QSocketNotifier11qt_metacallEN11QMetaObject4CallEiPPv
 _ZN6QSizeF5scaleERKS_N2Qt15AspectRatioModeE
 _ZN7QString6setNumEdci
 _ZN5QUuid10createUuidEv
 _ZN12QSockNotTypeC2Ev
 _ZN4QUrlC1ERK7QString
 _ZN8QVariantC2ERK4QMapI7QStringS_E
 _ZN18QAbstractItemModel10removeRowsEiiRK11QModelIndex
 _ZN18QAbstractItemModel4sortEiN2Qt9SortOrderE
 _ZNK7QRegExp11numCapturesEv
 _Z6qIsInfd
 _ZN8QVariant10nameToTypeEPKc
 _ZNK9QFileInfo8isHiddenEv
 _ZN7QObject11eventFilterEPS_P6QEvent
 _Z6qIsInff
 _ZN15QSocketNotifierD2Ev
 _ZTS27QAbstractFileEngineIterator
 _ZN27QEventDispatcherUNIXPrivateC1Ev
 _ZN9QBitArrayoRERKS_
 _ZN13QSystemLocaleD0Ev
 _ZNK7QString7toAsciiEv
 _ZN6QTimerC2EP7QObject
 _Z11qUncompressPKhi
 _ZNK13QMetaProperty5resetEP7QObject
 _ZN13QFSFileEngine11currentPathERK7QString
 _ZN13QFSFileEngineC2ER20QFSFileEnginePrivate
 _ZN14QTemporaryFile15createLocalFileER5QFile
 _ZN16QTextCodecPlugin6createERK7QString
 _ZN12QDirIteratorD0Ev
 _ZN9QConfFile10clearCacheEv
 _ZN13QFSFileEngine11setFileNameERK7QString
 _ZN4QUrl5clearEv
 _ZNK7QString5rightEi
 _ZN13QPluginLoader15staticInstancesEv
 _ZN15QSocketNotifier10setEnabledEb
 _ZN11QTextStreamD1Ev
 _ZN8QLibrary12setLoadHintsE6QFlagsINS_8LoadHintEE
 _ZN8QVariantC2ERK6QSizeF
 _ZN4QDirC2ERKS_
 _ZN20QEventDispatcherGlib22registerSocketNotifierEP15QSocketNotifier
 _ZN5QDate17gregorianToJulianEiii
 _ZNK9QMetaEnum11valueToKeysEi
 _ZN7QString4fillE5QChari
 _ZN7QString11shared_nullE
 _ZNK7QLocale7toShortERK7QStringPbi
 _ZN11QDataStream9setStatusENS_6StatusE
 _ZN5QChar14combiningClassEj
 _ZN7QString7replaceEiiPK5QChari
 _ZN23QCoreApplicationPrivate35appendApplicationPathToLibraryPathsEv
 _ZN7QBuffer11qt_metacallEN11QMetaObject4CallEiPPv
 _ZNK10QTextCodec11fromUnicodeERK7QString
 _ZTV12QCustomEvent
 _ZN8QVariant4loadER11QDataStream
 _ZN9QDateTime6detachEv
 _ZTS9QIODevice
 _ZN17QByteArrayMatcherC2ERKS_
 _ZN23QCoreApplicationPrivate10mainThreadEv
 _ZN5QChar14combiningClassEt
 _ZN17QByteArrayMatcherC1Ev
 _ZN11QBasicTimer5startEiP7QObject
 _ZN7QLocale16staticMetaObjectE
 _ZNK5QDate7addDaysEi
 _ZN25QAbstractItemModelPrivate25removePersistentIndexDataEP25QPersistentModelIndexData
 _ZN9QFileInfoC1ERK7QString
 _Z5qHashRK10QStringRef
 _ZNK5QChar10digitValueEv
 _ZNK9QIODevice5atEndEv
 _ZNK9QTimeLine9directionEv
 _ZTV15QDateTimeParser
 _ZNK9QFileInfo4pathEv
 _Z9qCompressPKhii
 _ZN16QCoreApplication14addLibraryPathERK7QString
 _ZNK9QFileInfo6isFileEv
 _ZNK9QMimeData4textEv
 _ZN11QDataStream12setByteOrderENS_9ByteOrderE
 _ZN27QAbstractFileEngineIterator7setPathERK7QString
 _ZN10QByteArray6removeEii
 _ZN9QMimeDataD0Ev
 _ZN12QTextEncoderD2Ev
 _ZNK9QMimeData7formatsEv
 _ZN16QIODevicePrivateD0Ev
 _ZNK18QFileSystemWatcher5filesEv
 _ZTI14QObjectPrivate
 _ZNK12QDirIterator8fileNameEv
 _ZN5QFileC1ERK7QStringP7QObject
 _ZN13QSystemLocaleC1Ev
 _ZN16QCoreApplication10unixSignalEi
 _ZN4QDir4cdUpEv
 _Z21qRegisterResourceDataiPKhS0_S0_
 _ZNK11QTranslator9translateEPKcS1_S1_i
 _ZNK11QMetaObject8propertyEi
 _ZN5QDate7setDateEiii
 _ZNK4QUrl12encodedQueryEv
 _ZNK10QTextCodec9canEncodeE5QChar
 _ZN5QFileC2EP7QObject
 _ZNK7QString7indexOfE5QChariN2Qt15CaseSensitivityE
 _ZN13QFSFileEngine8tempPathEv
 _ZNK11QMetaObject13propertyCountEv
 _ZN4QUrl10toPunycodeERK7QString
 _ZN11QDataStream11unsetDeviceEv
 _ZN10QSemaphore7acquireEi
 _ZN7QThread8finishedEv
 _ZN11QTextStreamC2Ev
 _ZN7QThreadC2ER14QThreadPrivateP7QObject
 _ZNK15QDateTimeParser11absoluteMinEi
 _ZN6QTimerD1Ev
 _ZN4QUrl18setQueryDelimitersEcc
 _ZN18QAbstractItemModel12rowsInsertedERK11QModelIndexii
 _ZNK9QResource8childrenEv
 _ZN21QObjectCleanupHandler5clearEv
 _ZNK6QRectFanERKS_
 _ZN7QRegExp13capturedTextsEv
 _ZN11QDataStreamC1ERK10QByteArray
 _ZN7QRegExp6escapeERK7QString
 _ZNK10QByteArray10simplifiedEv
 _ZN27QEventDispatcherUNIXPrivateD2Ev
 _ZN7QObject14dumpObjectInfoEv
 _ZNK5QFile12isSequentialEv
 _ZN9QDateTime15currentDateTimeEv
 _ZN9QDateTime10fromStringERK7QStringN2Qt10DateFormatE
 _ZNK8QVariant5toIntEPb
 _ZN4QUrlC2ERK7QString
 _ZN11QTranslatorC2EP7QObjectPKc
 _ZN19QAbstractTableModelC1ER25QAbstractItemModelPrivateP7QObject
 _ZN11QTextStream11setEncodingENS_8EncodingE
 _ZNK7QLocale10toLongLongERK7QStringPbi
 _ZNK9QFileInfo5isDirEv
 _ZTV11QDataStream
 _Z5fixedR11QTextStream
 _ZN25QAbstractItemModelPrivate12rowsInsertedERK11QModelIndexii
 _ZNK27QAbstractFileEngineIterator9entryInfoENS_13EntryInfoTypeE
 _ZNK9QDateTimeltERKS_
 _ZTI12QCustomEvent
 _ZN9QIODevice11setOpenModeE6QFlagsINS_12OpenModeFlagEE
 _ZNK7QString8toDoubleEPb
 _ZN11QThreadDataC1Ei
 _ZN7QString7replaceEiiRKS_
 _ZN11QTextStream8readLineEx
 _ZrsR11QDataStreamR6QRectF
 _ZN4QDir2cdERK7QString
 _ZN5QFile4openEi6QFlagsIN9QIODevice12OpenModeFlagEE
 _ZN7QString8vsprintfEPKcPc
 _ZNK13QMetaProperty6isUserEPK7QObject
 _ZNK8QVariant3cmpERKS_
 _ZNK7QLocale8toDoubleERK7QStringPb
 _Z6centerR11QTextStream
 _ZN9QMimeDataC1Ev
 _ZN16QCoreApplicationC2ER23QCoreApplicationPrivate
 _ZN27QDynamicPropertyChangeEventD0Ev
 _ZN9QResource9setLocaleERK7QLocale
 _ZN7QLocale15countryToStringENS_7CountryE
 _ZTV14QTemporaryFile
 _ZN16QIODevicePrivateC1Ev
 _ZN10QByteArray7prependEPKc
 _ZN9QTimeLine15toggleDirectionEv
 _Z3bomR11QTextStream
 _ZN17QByteArrayMatcherD2Ev
 _ZN10QByteArray7replaceEcRKS_
 _ZN5QFile5closeEv
 _ZN11QTranslatorC2EP7QObject
 _ZN15QDateTimeParser15dateTimeCompareERK8QVariantS2_
 _ZN10QByteArray4fillEci
 _ZN24QAbstractEventDispatcher8instanceEP7QThread
 _ZN14QFactoryLoader16staticMetaObjectE
 _ZN27QAbstractFileEngineIteratorC1E6QFlagsIN4QDir6FilterEERK11QStringList
 _ZN25QAbstractItemModelPrivate23columnsAboutToBeRemovedERK11QModelIndexii
 _ZN18QCryptographicHashD1Ev
 _ZNK10QByteArray7toULongEPbi
 _ZN5QFile11setFileNameERK7QString
 _ZN13QSignalMapperC2EP7QObjectPKc
 _ZNK9QMetaEnum11keysToValueEPKc
 _ZTS8QLibrary
 _ZN21QObjectCleanupHandler15objectDestroyedEP7QObject
 _ZN20QEventDispatcherUNIX5flushEv
 _Z5qSNaNv
 _ZN4QUrl12fromPunycodeERK10QByteArray
 _ZN19QAbstractFileEngine14setPermissionsEj
 _ZN23QCoreApplicationPrivateC2ERiPPc
 _ZNK11QMetaMethod14parameterNamesEv
 _ZN7QThread21setTerminationEnabledEb
 _ZNK14QLocalePrivate15numberToCLocaleERK7QStringNS_18GroupSeparatorModeEP15QVarLengthArrayIcLi256EE
 _ZN9QIODeviceC1ER16QIODevicePrivateP7QObject
 _ZTI12QDirIterator
 _ZNK13QMetaProperty10isEnumTypeEv
 _ZN7QBufferD0Ev
 _ZN9QIODevice4readEPcx
 _ZN9QFileInfoC1ERK5QFile
 _ZrsR11QDataStreamR7QString
 _ZN11QTextStreamrsER7QString
 _ZN8QVariantaSERKS_
 _ZN13QSystemLocaleD2Ev
 _Z19qInstallPathHeadersv
 _ZNK10QByteArray6toLongEPbi
 _ZN24QAbstractEventDispatcher10startingUpEv
 _ZNK5QChar8isLetterEv
 _ZNK11QMetaMethod6accessEv
 _ZN16QCoreApplication16removeTranslatorEP11QTranslator
 _ZN12QDirIteratorD2Ev
 _ZN9QTimeLine11setEndFrameEi
 _ZN10QEventLoopC2EP7QObject
 _ZNK8QVariant11toByteArrayEv
 _ZNK5QChar7isPunctEv
 _ZN7QThreadD0Ev
 _ZN13QSignalMapper11qt_metacallEN11QMetaObject4CallEiPPv
 _ZNK11QMetaObject10enumeratorEi
 _ZN7QString6insertEi5QChar
 _ZlsR11QDataStreamRK7QLocale
 _ZNK11QMetaObject16enumeratorOffsetEv
 _ZN20QEventDispatcherUNIXC2EP7QObject
 _ZlsR11QDataStreamRK6QPoint
 _ZN16QCoreApplication11qt_metacallEN11QMetaObject4CallEiPPv
 _ZN13QSignalMapper16staticMetaObjectE
 _ZN21QPersistentModelIndexC2ERKS_
 _ZNK15QDateTimeParser9fieldInfoEi
 _ZNK9QFileInfo12isExecutableEv
 _Z6qsrandj
 _ZNK7QLocale11toULongLongERK7QStringPbi
 _ZNK5QChar14combiningClassEv
 _ZN7QString14fromWCharArrayEPKwi
 _ZN13QFSFileEngine12endEntryListEv
 _ZN23QCoreApplicationPrivate13checkInstanceEPKc
 _ZN8QVariantC2ERK6QLineF
 _ZN26QAbstractFileEngineHandlerD0Ev
 _ZNK23QCoreApplicationPrivate7appNameEv
 _ZTI9QMimeData
 _ZNK8QVariant6isNullEv
 _ZTV14QMetaCallEvent
 _ZN18QThreadStorageData3setEPv
 _ZNK15QDateTimeParser13sectionFormatEi
 _ZN10QEventLoop11qt_metacallEN11QMetaObject4CallEiPPv
 _ZN19QAbstractFileEngine7setSizeEx
 _ZTS24QAbstractEventDispatcher
 _ZNK7QString3midEii
 _ZrsR11QDataStreamR4QUrl
 _ZNK10QTextCodec11fromUnicodeERK7QStringRi
 _ZNK13QFSFileEngine8fileTimeEN19QAbstractFileEngine8FileTimeE
 _ZNK14QTemporaryFile10fileEngineEv
 _ZN7QBuffer16staticMetaObjectE
 _ZN13QFSFileEngine8readLineEPcx
 _ZN16QTextCodecPluginD1Ev
 _ZN16QCoreApplication11aboutToQuitEv
 _Z3binR11QTextStream
 _ZN20QEventDispatcherUNIX15unregisterTimerEi
 _ZN7QThread11qt_metacallEN11QMetaObject4CallEiPPv
 _ZNK18QAbstractItemModel9mimeTypesEv
 _ZNK8QProcess5errorEv
 _ZN10QEventLoop6wakeUpEv
 _ZN9QSettings15beginWriteArrayERK7QStringi
 _ZorRK9QBitArrayS1_
 _ZNK9QMimeData7hasUrlsEv
 _ZNK4QDir10nameFilterEv
 _ZTS9QSettings
 _ZN9QMimeData7setDataERK7QStringRK10QByteArray
 _ZNK7QString4leftEi
 _Z15qInitResourceIOv
 _ZN9QFileInfo7setFileERK7QString
 _ZN13QFSFileEngine14beginEntryListE6QFlagsIN4QDir6FilterEERK11QStringList
 _ZNK7QLocale7countryEv
 _ZN11QThreadDataD2Ev
 _ZN9QMimeDataD2Ev
 _ZN16QCoreApplicationD1Ev
 _ZN5QCharC2Ec
 _ZNK14QMetaClassInfo5valueEv
 _ZN9QDateTimeD1Ev
 _ZTI17QFactoryInterface
 _ZN16QIODevicePrivateD2Ev
 _ZN6QTimer10singleShotEiP7QObjectPKc
 _ZN11QTextStream24setGenerateByteOrderMarkEb
 _ZN5QCharC2Eh
 _ZNK13QFSFileEngine5mkdirERK7QStringb
 _ZN9QTimeLine12valueChangedEd
 _ZNK15QDateTimeParser14sectionMaxSizeEi
 _Zls6QDebugRK5QSize
 _ZN8QVariantD1Ev
 _ZNK4QUrl8fileNameEv
 _ZN9QResource13addSearchPathERK7QString
 _ZNK5QDate3dayEv
 _ZNK8QProcess3pidEv
 _ZNK18QAbstractItemModel20supportedDropActionsEv
 _ZN9QIODevice14setErrorStringERK7QString
 _ZNK8QVariant8toRegExpEv
 _ZN8QProcessC2EP7QObject
 _ZNK4QUrl18queryPairDelimiterEv
 _ZN9QMimeData12setImageDataERK8QVariant
 _ZN18QAbstractItemModel20rowsAboutToBeRemovedERK11QModelIndexii
 _ZN6QTimerC1EP7QObject
 _ZNK7QString10normalizedENS_17NormalizationFormEN5QChar14UnicodeVersionE
 _ZNK7QString7sectionERK7QRegExpii6QFlagsINS_11SectionFlagEE
 _ZTS10QTextCodec
 __bss_start
 _ZNK10QByteArray7toShortEPbi
 _ZN18QFileSystemWatcher7addPathERK7QString
 _ZTS10QEventLoop
 _ZN16QCoreApplication9postEventEP7QObjectP6QEvent
 _ZN5QFile11qt_metacastEPKc
 _ZNK7QLocale8toStringERK5QTimeRK7QString
 _ZNK11QTextStream21generateByteOrderMarkEv
 _ZNK13QPluginLoader11errorStringEv
 _ZN5QDateC2Eiii
 _ZN16QCoreApplication9translateEPKcS1_S1_NS_8EncodingE
 _ZN8QVariantC1ERK6QSizeF
 _ZNK8QLibrary11errorStringEv
 _ZN23QCoreApplicationPrivate21createEventDispatcherEv
 _ZNK5QDate11daysInMonthEv
 _ZN18QAbstractItemModel13layoutChangedEv
 _ZN19QAbstractFileEngine11setFileNameERK7QString
 _ZNK9QSettings7allKeysEv
 _ZN26QAbstractFileEngineHandlerC1Ev
 _ZN13QPluginLoaderD0Ev
 _Zls6QDebugRK5QRect
 _ZNK10QTextCodec9toUnicodeEPKc
 _ZN11QDataStreamlsEa
 _ZN4QUrl12addQueryItemERK7QStringS2_
 _ZN11QDataStreamlsEb
 _ZN8QMapData16continueFreeDataEi
 _ZNK9QFileInfo11absoluteDirEv
 _Z16qInstallPathDatav
 _ZNK7QString12toWCharArrayEPw
 _ZN11QDataStreamlsEd
 _ZN15QSocketNotifier5eventEP6QEvent
 _Z16qInstallPathLibsv
 _ZNK8QVariant5toMapEv
 _ZN14QTemporaryFile13setAutoRemoveEb
 _ZN9QtPrivate18QStringList_filterEPK11QStringListRK7QStringN2Qt15CaseSensitivityE
 _ZNK4QUrl6schemeEv
 _ZN12QDirIteratorC2ERK7QString6QFlagsINS_12IteratorFlagEE
 _ZN11QTranslatorD0Ev
 _ZN11QDataStreamlsEf
 _ZTS13QPluginLoader
 _ZN5QFile12readLineDataEPcx
 _ZN4QDir11currentPathEv
 _ZNK13QMetaProperty10isReadableEv
 _ZNK19QAbstractTableModel5indexEiiRK11QModelIndex
 _ZN8QVariantC1ERK10QByteArray
 _ZN11QDataStreamlsEi
 _ZNK10QByteArray5countEc
 _ZN8QProcess18setReadChannelModeENS_18ProcessChannelModeE
 _ZN8QVariantC2Eb
 _ZNK9QFileInfo8baseNameEv
 _ZN18QAbstractItemModel11qt_metacallEN11QMetaObject4CallEiPPv
 _ZNK9QSettings5valueERK7QStringRK8QVariant
 _ZN9QFileInfo7setFileERK5QFile
 _ZN8QVariantC2Ed
 _ZN9QIODevice12aboutToCloseEv
 _ZTV26QAbstractFileEngineHandler
 _ZN9QConfFileC2ERK7QStringb
 _ZN7QObject11setPropertyEPKcRK8QVariant
 _ZN8QProcess17systemEnvironmentEv
 _ZN8QProcess21setStandardOutputFileERK7QString6QFlagsIN9QIODevice12OpenModeFlagEE
 _ZNK9QFileInfo9isSymLinkEv
 _ZN5QDate14shortMonthNameEi
 _ZN10QTextCodec14codecForLocaleEv
 _ZN6QMutexC1ENS_13RecursionModeE
 _ZN8QVariantC2Ei
 _ZN11QDataStreamlsEs
 _ZN8QVariantC1ERK5QChar
 _ZN8QVariantC2Ej
 _ZN8QVariantC1ERK5QSize
 _ZN9QSettings8setValueERK7QStringRK8QVariant
 _ZNK4QUrl8userNameEv
 _ZNK18QAbstractItemModel8itemDataERK11QModelIndex
 _ZN4QDir8tempPathEv
 _ZN10QTextCodecD1Ev
 _ZNK9QIODevice11canReadLineEv
 _ZN27QDynamicPropertyChangeEventD2Ev
 _ZN11QDataStreamlsEx
 _ZN9QDateTimeC2Ev
 _ZN12QTextEncoder11fromUnicodeERK7QString
 _ZNK7QString5splitERK7QRegExpNS_13SplitBehaviorE
 _ZN18QAbstractItemModel18beginRemoveColumnsERK11QModelIndexii
 _Z11qt_assert_xPKcS0_S0_i
 _ZN14QTemporaryFile16staticMetaObjectE
 _ZN4QDir12makeAbsoluteEv
 _ZNK11QTextStream6deviceEv
 _ZN6QTimer4stopEv
 _ZN14QReadWriteLock14tryLockForReadEi
 _ZNK8QProcess10exitStatusEv
 _ZN4QDir18toNativeSeparatorsERK7QString
 _ZNK7QRegExp7isEmptyEv
 _ZN8QVariantC2Ex
 _ZN8QVariantC2Ey
 _ZN7QString6setNumExi
 _ZNK14QStringMatcher7indexInERK7QStringi
 _ZN16QCoreApplication5eventEP6QEvent
 _ZN10QByteArrayC2Eic
 _ZN5QFileC1EP7QObject
 _ZN8QVariantC1ERK5QRect
 _ZN14QReadWriteLock14tryLockForReadEv
 _ZN7QThread7startedEv
 _ZNK19QAbstractFileEngine9fileFlagsE6QFlagsINS_8FileFlagEE
 _ZNK9QFileInfo16absoluteFilePathEv
 _ZN4QUrlC1ERK7QStringNS_11ParsingModeE
 _ZNK27QAbstractFileEngineIterator15currentFileInfoEv
 _ZN7QThreadC2EP7QObject
 _ZN5QChar10digitValueEj
 _ZN7QBufferD2Ev
 _ZThn8_N16QTextCodecPlugin6createERK7QString
 _ZN9QSettings7setPathENS_6FormatENS_5ScopeERK7QString
 _ZN9QDateTime9setTime_tEj
 _ZN9QFileInfoC2ERK4QDirRK7QString
 _ZTI16QCoreApplication
 _ZN9QTimeLine12setLoopCountEi
 _ZN10QByteArray7reallocEi
 _ZNK9QConfFile12mergedKeyMapEv
 _ZNK11QMetaObject16indexOfClassInfoEPKc
 _ZN18QAbstractItemModel11dataChangedERK11QModelIndexS2_
 _ZTS14QFactoryLoader
 _ZN7QString6appendERKS_
 _ZN8QVariantC1ER11QDataStream
 _ZN11QDataStreamrsERPc
 _ZNK7QObject10metaObjectEv
 _ZTI24QAbstractEventDispatcher
 _ZN5QChar10digitValueEt
 _ZN7QObjectC2EPS_PKc
 _ZN13QSignalMapper11qt_metacastEPKc
 _ZN18QFileSystemWatcherC2ERK11QStringListP7QObject
 _ZN7QLocaleaSERKS_
 _ZNK9QFileInfo10bundleNameEv
 _ZN18QAbstractItemModel13setHeaderDataEiN2Qt11OrientationERK8QVarianti
 _ZTI14QFactoryLoader
 _ZNK9QBitArray5countEb
 _ZNK13QMetaProperty12isDesignableEPK7QObject
 _ZN7QThreadD2Ev
 _ZNK9QResource16absoluteFilePathEv
 _ZNK15QDateTimeParser11sectionTypeEi
 _Z5qrandv
 _ZN20QEventDispatcherUNIX24setSocketNotifierPendingEP15QSocketNotifier
 _ZN10QByteArray6numberEii
 _ZTV7QThread
 _ZNK5QDate6daysToERKS_
 _ZNK14QLocalePrivate13validateCharsERK7QStringNS_10NumberModeEP10QByteArrayi
 _Z9qstrnicmpPKcS0_j
 _ZNK7QStringeqERKS_
 _ZN7QThread5startENS_8PriorityE
 _ZN11QDataStream11resetStatusEv
 _Z23qUnregisterResourceDataiPKhS0_S0_
 _ZN20QEventDispatcherUNIX23activateSocketNotifiersEv
 _ZN7QString6removeERKS_N2Qt15CaseSensitivityE
 _ZTS27QDynamicPropertyChangeEvent
 _ZN7QString6setNumEyi
 _ZN6QTimer11qt_metacallEN11QMetaObject4CallEiPPv
 _ZN20QEventDispatcherUNIXD1Ev
 _ZTS17QFactoryInterface
 _ZN26QAbstractFileEngineHandlerD2Ev
 _ZN13QFontLaoCodecD1Ev
 _ZNK4QUrl4hostEv
 _ZN8QVariantC1ERKS_
 _ZN10QEventLoop4exitEi
 _ZN4QDir14setSearchPathsERK7QStringRK11QStringList
 _ZN10QTextCodecC2Ev
 _ZN24QAbstractEventDispatcher11closingDownEv
 _ZNK10QByteArray7indexOfERKS_i
 _ZN16QCoreApplication18setApplicationNameERK7QString
 _ZNK5QChar7toUpperEv
 _ZN24QAbstractEventDispatcher13registerTimerEiP7QObject
 _ZN4QUrl11setUserNameERK7QString
 _ZN7QBuffer8readDataEPcx
 _ZN11QDataStreamC2EP10QByteArrayi
 _ZN9QMetaType4typeEPKc
 _ZlsR11QDataStreamRK7QRegExp
 _ZN13QPluginLoaderC1EP7QObject
 _ZNK10QByteArray8endsWithERKS_
 _ZN13QFSFileEngine7setSizeEx
 _ZN11QTranslatorC1EP7QObject
 _ZNK27QAbstractFileEngineIterator7filtersEv
 qt_removeObject
 _ZN9QHashData11shared_nullE
 _ZTS6QEvent
 _ZN18QAbstractListModelC2EP7QObject
 _ZN10QByteArray6numberEji
 _ZNK6QLineF9intersectERKS_P7QPointF
 _ZN13QFSFileEngineC1ER20QFSFileEnginePrivate
 _ZN18QCryptographicHashC1ENS_9AlgorithmE
 _ZN10QMutexPoolC1Ebi
 _ZN9QDateTimeC1ERK5QDateRK5QTimeN2Qt8TimeSpecE
 _ZN11QChildEventC2EN6QEvent4TypeEP7QObject
 _ZN14QStringMatcher10setPatternERK7QString
 _ZNK5QTime7addSecsEi
 _ZN5QFile6removeEv
 _ZN13QFSFileEngine6renameERK7QString
 _ZNK7QString10startsWithERKS_N2Qt15CaseSensitivityE
 _ZNK8QProcess5atEndEv
 _ZN4QDir6drivesEv
 _ZNK9QFileInfo8readLinkEv
 _ZN18QFileSystemWatcherC1ERK11QStringListP7QObject
 _ZN9QInternal12callFunctionENS_16InternalFunctionEPPv
 _ZTS11QTextStream
 _ZN13QFSFileEngine4readEPcx
 _ZN19QAbstractFileEngine6renameERK7QString
 _ZN9QIODevice11resetStatusEv
 _ZNK15QDateTimeParser9stateNameEi
 _ZNK7QObject9queryListEPKcS1_bb
 _ZN5QFile9writeDataEPKcx
 _ZNK8QVariant8toPointFEv
 _Zls6QDebugRK7QPointF
 _ZN4QDir13setNameFilterERK7QString
 _ZN11QTextStreamlsERK7QString
 _ZN6QTimer11setIntervalEi
 _ZN7QLocale10setDefaultERKS_
 _ZN10QEventLoopC1EP7QObject
 _ZN21QObjectCleanupHandlerD1Ev
 _Z12qSharedBuildv
 _ZN13QFSFileEngineD1Ev
 _ZN10QByteArrayaSEPKc
 _ZN20QEventDispatcherUNIXC1EP7QObject
 _ZNK11QMetaObject15classInfoOffsetEv
 _ZN13QPluginLoaderD2Ev
 _ZN14QObjectPrivate13readWriteLockEv
 _ZNK4QDir5rmdirERK7QString
 _ZN20QEventDispatcherUNIX16hasPendingEventsEv
 _ZNK21QObjectCleanupHandler7isEmptyEv
 _ZN7QLocaleC1ENS_8LanguageENS_7CountryE
 _ZN14QStringMatcherD1Ev
 _ZN9QIODevice9ungetCharEc
 _ZN27QDynamicPropertyChangeEventC2ERK10QByteArray
 _ZNK19QAbstractFileEngine17supportsExtensionENS_9ExtensionE
 _ZN8QVariantC1ERK6QLineF
 _ZN9QSettings13setArrayIndexEi
 _ZN11QTranslatorD2Ev
 _ZTS12QDirIterator
 _ZNK7QBuffer11canReadLineEv
 _ZNK7QLocale8languageEv
 _ZN13QFSFileEngine5writeEPKcx
 _ZTV20QEventDispatcherGlib
 _ZN11QTextStreamlsE5QBool
 _ZNK19QAbstractTableModel10metaObjectEv
 _ZN11QTextStream11resetStatusEv
 _ZNK7QRegExp7indexInERK7QStringiNS_9CaretModeE
 _ZN13QSignalMapper6mappedEP7QObject
 _ZNK4QDir13entryInfoListERK11QStringList6QFlagsINS_6FilterEES3_INS_8SortFlagEE
 _ZNK9QMimeData7hasHtmlEv
 _ZNK10QByteArray7toUpperEv
 _ZN9QMetaType12isRegisteredEi
 _ZN15QObjectUserDataD0Ev
 _ZN9QIODevice4openE6QFlagsINS_12OpenModeFlagEE
 _ZNK10QTextCodec9canEncodeERK7QString
 _ZN7QStringC2EPK5QChari
 _ZN9QHashData6rehashEi
 _ZN18QAbstractItemModel24columnsAboutToBeInsertedERK11QModelIndexii
 _ZNK19QAbstractFileEngine12isSequentialEv
 _ZTV13QSignalMapper
 _ZN7QString10fromLatin1EPKci
 _ZN8QProcess21setProcessChannelModeENS_18ProcessChannelModeE
 _ZNK7QThread9stackSizeEv
 _ZN8QLibrary4loadEv
 _ZrsR11QDataStreamR7QLocale
 _ZNK6QRectF10intersectsERKS_
 _ZN7QRegExp10setMinimalEb
 _ZNK10QByteArray10startsWithERKS_
 _ZTS13QFontLaoCodec
 _ZN24QAbstractEventDispatcher16staticMetaObjectE
 _Zls6QDebugRK5QDate
 _ZNK7QString3argEdiciRK5QChar
 _ZNK21QPersistentModelIndexltERKS_
 _ZN10QByteArrayC2EPKci
 _ZNK18QAbstractListModel11columnCountERK11QModelIndex
 _ZTS13QSystemLocale
 _ZNK10QEventLoop9isRunningEv
 _ZN11QThreadData4get2EP7QThread
 _ZNK13QFontLaoCodec7mibEnumEv
 _ZN21QObjectCleanupHandlerC2Ev
 _ZN7QString13fromLocal8BitEPKci
 _ZNK5QChar16decompositionTagEv
 _ZN9QFileInfo7refreshEv
 _ZN10QByteArray6appendERKS_
 _ZN13QFSFileEngineC2Ev
 _ZltRK10QStringRefS1_
 _ZNK7QString10simplifiedEv
 _ZNK20QEventDispatcherUNIX10metaObjectEv
 _ZNK9QIODevice3posEv
 _ZTV11QTsciiCodec
 _ZN14QStringMatcherC2Ev
 _ZN16QCoreApplication18organizationDomainEv
 _ZNK9QSettings9childKeysEv
 _ZN4QUrl13setEncodedUrlERK10QByteArray
 _ZN9QHashData8nextNodeEPNS_4NodeE
 _ZN27QEventDispatcherGlibPrivateC1EP13_GMainContext
 _ZN4QUrl6detachEv
 _ZNK19QAbstractFileEngine3posEv
 _ZN16QCoreApplication10startingUpEv
 _ZN7QString11fromRawDataEPK5QChari
 _ZN11QTextStreamlsEc
 _ZNK15QDateTimeParser11sectionSizeEi
 _ZN10QSemaphore10tryAcquireEii
 _ZTV18QAbstractItemModel
 _ZN11QTextStreamlsEd
 _ZN17QByteArrayMatcher10setPatternERK10QByteArray
 _ZN11QTextStreamlsEf
 _ZNK7QString6toLongEPbi
 _ZN16QCoreApplication14notifyInternalEP7QObjectP6QEvent
 _ZN9QHashData12allocateNodeEv
 _ZN11QTextStreamC1EP8_IO_FILE6QFlagsIN9QIODevice12OpenModeFlagEE
 _ZN11QTextStreamlsEi
 _ZN11QTextStreamlsEj
 _ZN9QDateTimeC2ERK5QDateRK5QTimeN2Qt8TimeSpecE
 _ZN4QDir10setCurrentERK7QString
 _ZN11QTextStreamlsEl
 _ZNK10QEventLoop10metaObjectEv
 _ZN11QTextStreamlsEm
 _ZNK8QVariant7toLineFEv
 _ZNK21QPersistentModelIndexeqERK11QModelIndex
 _ZN18QThreadStorageDataD2Ev
 _ZNK9QMetaEnum10keyToValueEPKc
 _ZN10QByteArray7prependERKS_
 _ZTI18QFileSystemWatcher
 _ZN13QPluginLoaderC2ERK7QStringP7QObject
 _ZNK7QLocale12negativeSignEv
 _ZN11QTextStreamlsEs
 _ZNK7QRegExp15caseSensitivityEv
 _ZTI20QEventDispatcherUNIX
 _ZTS18QAbstractListModel
 _ZN11QTextStreamlsEt
 _ZN8QVariantC1ERK5QDate
 _ZNK16QTextCodecPlugin10metaObjectEv
 _ZNK11QTsciiCodec16convertToUnicodeEPKciPN10QTextCodec14ConverterStateE
 _ZN11QTextStreamlsEx
 _ZNK18QAbstractItemModel11hasChildrenERK11QModelIndex
 _ZN11QTextStreamlsEy
 _ZTS11QTimerEvent
 _ZN11QTextStream10setPadCharE5QChar
 _ZNK11QTextStream11integerBaseEv
 _ZN14QLocalePrivate19updateSystemPrivateEv
 _ZTV8QProcess
 _ZN9QFileInfo6detachEv
 _ZN4QUrl15setIdnWhitelistERK11QStringList
 _ZN18QAbstractItemModel9fetchMoreERK11QModelIndex
 _ZN9QMetaType4saveER11QDataStreamiPKv
 _ZN9QTimeLine10timerEventEP11QTimerEvent
 _ZNK8QProcess14bytesAvailableEv
 _ZN7QBuffer9setBufferEP10QByteArray
 _Z23qt_qFindChildren_helperPK7QObjectRK7QStringPK7QRegExpRK11QMetaObjectP5QListIPvE
 _ZN8QProcess5startERK7QString6QFlagsIN9QIODevice12OpenModeFlagEE
 _ZNK5QDate9dayOfYearEv
 _ZN7QLocaleC2ERKS_
 _ZTI10QEventLoop
 _ZTV11QChildEvent
 _ZN21QObjectCleanupHandler11qt_metacallEN11QMetaObject4CallEiPPv
 _ZN7QThreadC1EP7QObject
 _ZN7QString6expandEi
 _Z4endlR11QTextStream
 _ZN11QDataStreamC2ERK10QByteArray
 _ZNK9QIODevice10isWritableEv
 _ZN9QSettingsC1ERK7QStringS2_P7QObject
 _ZNK7QString3argExiiRK5QChar
 _ZN16QTextCodecPlugin11qt_metacallEN11QMetaObject4CallEiPPv
 _ZN16QCoreApplication13processEventsE6QFlagsIN10QEventLoop17ProcessEventsFlagEE
 _ZN8QProcess9writeDataEPKcx
 _ZN13QPluginLoader11setFileNameERK7QString
 _ZNK7QString8endsWithERK13QLatin1StringN2Qt15CaseSensitivityE
 _ZN10QByteArray12shared_emptyE
 _ZN7QObjectC1EPS_
 _ZTI15QObjectUserData
 _ZNK7QLocale8toStringERK5QTimeNS_10FormatTypeE
 _ZN9QIODeviceD0Ev
 _ZN12QTextEncoder11fromUnicodeEPK5QChari
 _ZNK7QLocale6toUIntERK7QStringPbi
 _ZN18QAbstractListModelC2ER25QAbstractItemModelPrivateP7QObject
 _ZNK4QDireqERKS_
 _ZN9QListData5eraseEPPv
 _ZN24QAbstractEventDispatcherD1Ev
 _ZNK5QChar11hasMirroredEv
 _ZlsR11QDataStreamRK6QRectF
 _ZN16QCoreApplication11qt_metacastEPKc
 _ZNK7QLocale12decimalPointEv
 _ZN9QTimeLineD1Ev
 _ZNK8QProcess16workingDirectoryEv
 _ZNK13QSignalMapper10metaObjectEv
 _ZNK9QDateTime8addMSecsEx
 _ZN9QTimeLine12frameChangedEi
 _ZN7QObject9setParentEPS_
 _ZN14QStringMatcherC2ERK7QStringN2Qt15CaseSensitivityE
 _ZN9QSettings14setUserIniPathERK7QString
 _ZNK7QString5countERK7QRegExp
 _ZrsR11QDataStreamRN8QVariant4TypeE
 _ZN8QVariantC2ERK6QPoint
 _ZN15QDateTimeParser11parseFormatERK7QString
 _ZNK5QUuid7versionEv
 _ZN10QSemaphore7releaseEi
 _ZN4QDir8rootPathEv
 _ZN21QObjectCleanupHandler11qt_metacastEPKc
 _ZNK7QLocale4nameEv
 _ZNK7QString11lastIndexOfERK7QRegExpi
 _ZNK12QDirIterator8filePathEv
 _Z7qMallocj
 _ZNK11QMetaMethod8typeNameEv
 _ZN15QObjectUserDataD2Ev
 _ZN7QStringaSE5QChar
 _ZN9QTimeLine16staticMetaObjectE
 _Z5qFreePv
 _ZNK8QVariant8toDoubleEPb
 _ZN11QMetaObject11removeGuardEPP7QObject
 _ZNK4QDir6rmpathERK7QString
 _ZN9QFileInfoD1Ev
 _ZN11QMetaObject19normalizedSignatureEPKc
 _Z8qVersionv
 _ZN15QSocketNotifierC1EiNS_4TypeEP7QObjectPKc
 _ZN8QVariantC2ERK7QString
 _ZTV16QCoreApplication
 _ZN4QUrl17toPercentEncodingERK7QStringRK10QByteArrayS5_
 _ZN13QFSFileEngine4openE6QFlagsIN9QIODevice12OpenModeFlagEE
 _ZNK4QUrl18allQueryItemValuesERK7QString
 _ZNK8QVariant8toStringEv
 _ZTV17QFactoryInterface
 _ZN8QProcessD1Ev
 _ZN9QSettingsC1ENS_5ScopeERK7QStringS3_P7QObject
 _ZN27QAbstractFileEngineIteratorD1Ev
 _ZN4QDirD2Ev
 _Z6qIsNaNd
 _Z6qIsNaNf
 _ZN7QBuffer11qt_metacastEPKc
 _ZTV13QFontLaoCodec
 _ZN16QCoreApplication12libraryPathsEv
 _ZNK11QDataStream6statusEv
 _ZNK5QChar12mirroredCharEv
 _ZN11QTextStreamlsERK10QByteArray
 _ZN4QUrl6setUrlERK7QStringNS_11ParsingModeE
 _ZN9QIODeviceC1Ev
 _ZN9QSettingsC2ENS_6FormatENS_5ScopeERK7QStringS4_P7QObject
 _ZN14QFactoryLoaderD0Ev
 _ZNK9QMetaEnum10valueToKeyEi
 _ZNK5QRect10intersectsERKS_
 _ZN12QLibraryInfoC1Ev
 _ZNK5QChar12toCaseFoldedEv
 _ZN9QFileInfoeqERKS_
 _ZNK7QString11lastIndexOfERKS_iN2Qt15CaseSensitivityE
 _ZNK9QIODevice6statusEv
 _ZNK15QDateTimeParser10getMinimumEv
 _ZNK12QDirIterator7hasNextEv
 _ZN18QAbstractItemModel15beginInsertRowsERK11QModelIndexii
 _ZN15QSocketNotifier11qt_metacastEPKc
 _ZN9QConfFile8fromNameERK7QStringb
 _ZN8QProcess8readDataEPcx
 _ZNK4QUrleqERKS_
 _ZN19QAbstractFileEngine9extensionENS_9ExtensionEPKNS_15ExtensionOptionEPNS_15ExtensionReturnE
 _ZrsR11QDataStreamR7QRegExp
 _ZN9QSettingsC2ENS_5ScopeERK7QStringS3_P7QObject
 _ZNK11QMetaObject6trUtf8EPKcS1_
 _ZN6QMutex4lockEv
 _ZNK13QMetaProperty8userTypeEv
 _Zls6QDebugRK21QPersistentModelIndex
 _ZNK21QPersistentModelIndex5modelEv
 _ZN7QString7replaceE5QCharRKS_N2Qt15CaseSensitivityE
 _ZN8QVariantC1ERK11QStringList
 _ZN14QMetaCallEventC1EiPK7QObjectiPiPPvP10QSemaphore
 _ZNK5QTime6secsToERKS_
 _ZNK8QVariant7toRectFEv
 _ZNK9QTimeLine10startFrameEv
 _ZN5QChar16decompositionTagEj
 _ZNK7QLocale7dayNameEiNS_10FormatTypeE
 _ZN9QBitArray6resizeEi
 _ZN9QFileInfoC2Ev
 _ZN14QTemporaryFileD0Ev
 _ZN4QUrl11setFragmentERK7QString
 _ZN9QFileInfoC1ERK4QDirRK7QString
 _ZNK7QLocale14groupSeparatorEv
 _ZN4QDiraSERK7QString
 _ZN15QSocketNotifier9activatedEi
 _ZNK8QVariant6toListEv
 _ZTS18QFileSystemWatcher
 _ZN20QEventDispatcherGlib13processEventsE6QFlagsIN10QEventLoop17ProcessEventsFlagEE
 _ZN9QSettings5clearEv
 _ZN9QMetaType9constructEiPKv
 _ZNK10QTextCodec9toUnicodeERK10QByteArray
 _ZN4QDir9cleanPathERK7QString
 _ZN7QThread4execEv
 _ZN19QAbstractFileEngine5closeEv
 _ZNK9QDateTime4timeEv
 _ZNK7QString7trimmedEv
 _ZlsR11QDataStreamRK7QPointF
 _ZTI9QIODevice
 _ZNK9QResource4sizeEv
 _Z6qFatalPKcz
 _ZTV13QFSFileEngine
 _ZN24QAbstractEventDispatcher11qt_metacallEN11QMetaObject4CallEiPPv
 _ZN9QIODevice5writeEPKcx
 _ZTI9QTimeLine
 _ZTI7QBuffer
 _ZN10QByteArray7replaceEcc
 _ZN11QTextStream9setStatusENS_6StatusE
 _Zls6QDebugRK6QSizeF
 _ZN10QEventLoopD0Ev
 _ZN11QTextStream8setCodecEPKc
 _ZN11QTranslator11qt_metacastEPKc
 _ZN4QUrl15removeQueryItemERK7QString
 _ZN8QVariantC2ERK13QLatin1String
 _ZN7QLocale6systemEv
 _ZN14QObjectPrivate13isValidObjectEP7QObject
 _ZNK15QDateTimeParser20potentialValueHelperERK7QStringiiii
 _Z5flushR11QTextStream
 _ZNK4QUrl19queryValueDelimiterEv
 _ZNK5QUuid7variantEv
 _ZNK8QVariant6toDateEv
 _ZNK13QSignalMapper7mappingEP7QWidget
 _ZN9QInternal17activateCallbacksENS_8CallbackEPPv
 _ZN12QCustomEventD0Ev
 _ZN10QByteArray6expandEi
 _ZN9QBitArrayC1Eib
 _ZN7QObject11customEventEP6QEvent
 _Z8qstrtollPKcPS0_iPb
 _ZNK11QTranslator9translateEPKcS1_S1_
 _ZN19QAbstractFileEngineC1ER26QAbstractFileEnginePrivate
 _ZTI27QAbstractFileEngineIterator
 _ZN4QDir17convertSeparatorsERK7QString
 _ZNK6QLineF10unitVectorEv
 _ZN9QDateTime10fromTime_tEj
 _ZN18QFileSystemWatcher16staticMetaObjectE
 _ZN8QVariantC1EiPKv
 _ZN7QString17fromLatin1_helperEPKci
 _ZN5QTimeC2Eiiii
 _ZN5QFile11qt_metacallEN11QMetaObject4CallEiPPv
 _ZN8QProcess7executeERK7QString
 _ZN9QIODeviceD2Ev
 _ZN8QProcess9terminateEv
 _ZN11QTextStream14setNumberFlagsE6QFlagsINS_10NumberFlagEE
 _ZN7QRegExpC1ERK7QStringN2Qt15CaseSensitivityENS_13PatternSyntaxE
 _ZN11QDataStream12writeRawDataEPKci
 _ZN4QDirC1ERK7QStringS2_6QFlagsINS_8SortFlagEES3_INS_6FilterEE
 _ZN11QTextStream13flagsInternalEi
 _ZN8QVariantC2ERK10QByteArray
 _ZN14QObjectPrivateD0Ev
 _ZN10QSemaphoreD1Ev
 _ZN14QMetaCallEventD1Ev
 _ZNK9QResource6localeEv
 _ZNK7QString7compareERKS_
 _ZNK14QLocalePrivate16stringToLongLongERK7QStringiPbNS_18GroupSeparatorModeE
 _ZNK8QVariant10toLongLongEPb
 _ZN4QDir20fromNativeSeparatorsERK7QString
 _ZN14QTemporaryFileC1Ev
 _ZNK16QCoreApplication10metaObjectEv
 _ZN24QAbstractEventDispatcher11filterEventEPv
 _Z19qcoreVariantHandlerv
 _ZN5QDate6setYMDEiii
 _ZNK19QAbstractFileEngine4sizeEv
 _ZNK14QFactoryLoader10metaObjectEv
 _ZNK19QAbstractFileEngine13caseSensitiveEv
 _ZNK13QMetaProperty10isEditableEPK7QObject
 _ZN7QThread16staticMetaObjectE
 _ZNK12QDirIterator4pathEv
 _ZNK5QFile10metaObjectEv
 _ZN4QUrlC1Ev
 _ZN9QHashData12previousNodeEPNS_4NodeE
 _ZN11QChildEventC1EN6QEvent4TypeEP7QObject
 _ZN7QThread4exitEi
 _ZN8QProcess17closeWriteChannelEv
 _ZN18QFileSystemWatcher16directoryChangedERK7QString
 _ZN5QSize5scaleERKS_N2Qt15AspectRatioModeE
 _ZNK16QTextCodecPlugin4keysEv
 _ZN5QFileD0Ev
 _ZNK7QString12toCaseFoldedEv
 _ZNK8QVariant4saveER11QDataStream
 _ZNK13QFSFileEngine5ownerEN19QAbstractFileEngine9FileOwnerE
 _ZNK19QAbstractFileEngine7ownerIdENS_9FileOwnerE
 _ZNK18QAbstractListModel6parentERK11QModelIndex
 _ZNK9QFileInfo4sizeEv
 _ZNK8QProcess12isSequentialEv
 _ZN8QProcess20setStandardErrorFileERK7QString6QFlagsIN9QIODevice12OpenModeFlagEE
 _ZNK9QIODevice17isTextModeEnabledEv
 _ZNK5QTime8addMSecsEi
 _ZN10QTextCodec12codecForNameERK10QByteArray
 _ZN16QCoreApplication6notifyEP7QObjectP6QEvent
 _ZNK7QLocale9monthNameEiNS_10FormatTypeE
 _ZNK7QString8endsWithERKS_N2Qt15CaseSensitivityE
 _ZN7QObject14dumpObjectTreeEv
 _ZNK13QSignalMapper7mappingEi
 _ZN14QObjectPrivateC1Ei
 _ZlsR11QDataStreamRK10QByteArray
 _ZN7QString10setUnicodeEPK5QChari
 _ZN8QVariantC2ER11QDataStream
 _ZN10QSemaphoreC2Ei
 _ZNK15QDateTimeParser7findDayERK7QStringiiPS0_Pi
 _ZN18QAbstractItemModel21changePersistentIndexERK11QModelIndexS2_
 _ZN14QFactoryLoaderD2Ev
 _ZNK19QAbstractFileEngine9entryListE6QFlagsIN4QDir6FilterEERK11QStringList
 _ZNK9QTimeLine12currentValueEv
 _ZNK4QUrl10isDetachedEv
 _ZN9QInternal18unregisterCallbackENS_8CallbackEPFbPPvE
 _ZNK10QTextCodec11makeEncoderEv
 _ZN9QDateTime10fromStringERK7QStringS2_
 _ZN9QListData11shared_nullE
 _ZNK19QAbstractFileEngine5ownerENS_9FileOwnerE
 _ZNK7QLocale10dateFormatENS_10FormatTypeE
 _ZN8QProcess24setStandardOutputProcessEPS_
 _ZN8QLibrary11qt_metacastEPKc
 qt_signal_spy_callback_set
 _Z12qInstallPathv
 _ZN7QRegExpD1Ev
 _ZN7QThread9terminateEv
 _ZN9QIODevice16waitForReadyReadEi
 _ZNK14QLocalePrivate19stringToUnsLongLongERK7QStringiPbNS_18GroupSeparatorModeE
 _ZN6QMutex7tryLockEi
 _ZTI19QAbstractFileEngine
 _ZNK8QProcess18processChannelModeEv
 _ZN16QCoreApplication9translateEPKcS1_S1_NS_8EncodingEi
 _ZN14QWaitCondition7wakeOneEv
 _ZNK15QDateTimeParser11sectionNodeEi
 _ZN10QTextCodec4cftrE
 _ZN20QEventDispatcherUNIX6selectEiP6fd_setS1_S1_P7timeval
 _ZN13QFSFileEngineC1ERK7QString
 _ZN6QTimer7timeoutEv
 _ZNK27QAbstractFileEngineIterator4pathEv
 _ZTS27QEventDispatcherGlibPrivate
 _ZNK7QThread8priorityEv
 _ZNK7QStringeqERK13QLatin1String
 _ZN23QCoreApplicationPrivate19checkReceiverThreadEP7QObject
 _ZN20QEventDispatcherGlib15unregisterTimerEi
 _ZN10QByteArrayaSERKS_
 _ZNK7QBuffer6bufferEv
 _Z8showbaseR11QTextStream
 _ZN11QTextStream4readEx
 _ZNK9QTimeLine12valueForTimeEi
 _ZN6QMutex7tryLockEv
 _ZN9QTimeLine9setPausedEb
 _ZNK15QSocketNotifier10metaObjectEv
 _ZNK7QRegExp13patternSyntaxEv
 _ZN8QVariantC1ERK6QPoint
 _ZN7QString4nullE
 _ZNK5QUuid8toStringEv
 _ZN18QAbstractItemModel7setDataERK11QModelIndexRK8QVarianti
 _ZNK7QLocale8toUShortERK7QStringPbi
 _ZN14QTemporaryFileD2Ev
 _ZN10QByteArray6insertEiPKc
 _ZN5QFileC1Ev
 _ZN25QAbstractItemModelPrivate16staticEmptyModelEv
 _ZN11QDataStreamrsERa
 _ZNK7QObject20dynamicPropertyNamesEv
 _ZN4QUrlaSERK7QString
 _ZN11QDataStreamrsERb
 _ZNK7QStringltERK13QLatin1String
 _ZN19QAbstractFileEngine12endEntryListEv
 _ZN11QDataStreamrsERd
 _ZNK11QMetaObject11methodCountEv
 _ZN19QAbstractFileEngineD1Ev
 _ZNK4QDir11nameFiltersEv
 _ZN11QDataStreamrsERf
 _ZTV15QObjectUserData
 _ZNK9QIODevice12isSequentialEv
 _ZN18QCryptographicHashC2ENS_9AlgorithmE
 _ZN4QUrlD2Ev
 _ZNK13QSignalMapper7mappingEP7QObject
 _ZN11QTimerEventD0Ev
 _ZN11QDataStreamrsERi
 _ZN10QByteArray11fromRawDataEPKci
 _ZN18QAbstractListModelD1Ev
 _ZNK15QDateTimeParser9isSpecialERK5QChar
 _ZNK10QByteArray13leftJustifiedEicb
 _ZN13QMetaPropertyC1Ev
 _ZN9QResourceD1Ev
 _ZNK11QMetaObject11indexOfSlotEPKc
 _ZN19QAbstractFileEngine5writeEPKcx
 _ZN10QEventLoopD2Ev
 _ZN4QDir7setPathERK7QString
 _ZNK10QStringRef8appendToEP7QString
 _ZN14QTemporaryFile4openE6QFlagsIN9QIODevice12OpenModeFlagEE
 _ZN11QDataStreamrsERs
 _ZTI13QPluginLoader
 _ZNK19QAbstractTableModel6parentERK11QModelIndex
 _ZNK7QString7compareERK13QLatin1StringN2Qt15CaseSensitivityE
 _ZTS15QObjectUserData
 _ZTI7QObject
 _ZN16QCoreApplication19setOrganizationNameERK7QString
 _ZN11QDataStreamrsERx
 _ZN20QEventDispatcherGlibC2EP7QObject
 _ZNK13QPluginLoader10metaObjectEv
 _ZN18QAbstractItemModel18beginInsertColumnsERK11QModelIndexii
 _ZN14QMetaCallEventC2EiPK7QObjectiiiPiPPvP10QSemaphore
 _Zls6QDebugRK6QLineF
 _ZN7QRegExpC2Ev
 _ZN12QCustomEventD2Ev
 _ZN9QIODevice12readLineDataEPcx
 _ZN8QLibraryC1ERK7QStringP7QObject
 _ZN4QUrlC2ERK7QStringNS_11ParsingModeE
 _ZNK7QLocale5toIntERK7QStringPbi
 _ZNK7QLocale1dEv
 _ZN9QIODevice11qt_metacastEPKc
 _Zls6QDebugRK9QDateTime
 _ZN13QSignalMapperD0Ev
 _Z5rightR11QTextStream
 _ZN5QTime7isValidEiiii
 _ZN9QMimeData12setColorDataERK8QVariant
 _ZlsR11QDataStreamRK9QBitArray
 _ZTV9QSettings
 _ZN14QObjectPrivateD2Ev
 _ZN14QStringMatcherC2ERKS_
 _ZNK9QMetaEnum5scopeEv
 _ZN7QThread12setStackSizeEj
 _ZTV11QTranslator
 _ZN11QTimerEventC1Ei
 _ZTS25QAbstractItemModelPrivate
 _ZNK4QUrl8toStringE6QFlagsINS_16FormattingOptionEE
 _ZN5QFile14setPermissionsE6QFlagsINS_10PermissionEE
 _ZN9QMetaType23registerStreamOperatorsEPKcPFvR11QDataStreamPKvEPFvS3_PvE
 _ZeqRK7QStringRK10QStringRef
 _ZNK8QVariant7toPointEv
 _ZN7QObject18staticQtMetaObjectE
 _ZN19QAbstractFileEngineC2Ev
 _ZNK13QMetaProperty10enumeratorEv
 _ZNK9QFileInfo17canonicalFilePathEv
 _ZN8QProcess11qt_metacallEN11QMetaObject4CallEiPPv
 _ZN9QSettings19setFallbacksEnabledEb
 _ZN23QCoreApplicationPrivate15eventDispatcherE
 _ZN8QVariantC2ERK7QLocale
 _ZNK21QPersistentModelIndexcvRK11QModelIndexEv
 _ZN18QAbstractItemModelD0Ev
 _ZNK10QByteArray7indexOfEci
 _ZNK18QAbstractItemModel10metaObjectEv
 _ZN11QDataStreamC2EP9QIODevice
 _ZN5QFileD2Ev
 _ZNK7QString11lastIndexOfE5QChariN2Qt15CaseSensitivityE
 _ZN13QFSFileEngineC2ERK7QString
 _ZN18QAbstractItemModel5resetEv
 _ZN7QStringC1Ei5QChar
 _ZNK9QMimeData12retrieveDataERK7QStringN8QVariant4TypeE
 _ZN6QMutexC2ENS_13RecursionModeE
 _ZNK8QVariant12toStringListEv
 _ZNK21QPersistentModelIndexneERK11QModelIndex
 _ZN18QAbstractItemModel11setItemDataERK11QModelIndexRK4QMapIi8QVariantE
 _ZN8QProcess13startDetachedERK7QStringRK11QStringListS2_Px
 _ZNK5QChar9directionEv
 _ZNK10QByteArray3midEii
 _ZN13QFSFileEngine14setCurrentPathERK7QString
 _ZN7QRegExp10setPatternERK7QString
 _ZNK8QVariant11toULongLongEPb
 _ZTV27QEventDispatcherUNIXPrivate
 _ZN21QPersistentModelIndexD1Ev
 _ZNK5QTime4hourEv
 _ZNK11QTextStream13flagsInternalEv
 _Z3octR11QTextStream
 _ZNK21QPersistentModelIndex7siblingEii
 _ZNK9QFileInfo8fileNameEv
 _ZNK7QThread10isFinishedEv
 _ZNK5QDate7isValidEv
 _Z19qInstallPathPluginsv
 _ZNK7QString13leftJustifiedEi5QCharb
 _ZNK7QRegExp13matchedLengthEv
 _Zls6QDebugRK5QLine
 _ZN6QEventC1ENS_4TypeE
 _ZN16QIODevicePrivate13putCharHelperEc
 _ZNK5QChar7joiningEv
 _ZNK10QByteArray4leftEi
 _ZN8QVariant12castOrDetachENS_4TypeE
 _ZN11QTsciiCodecD1Ev
 _ZN14QReadWriteLockD1Ev
 _ZN8QMapData11node_deleteEPPNS_4NodeEiS1_
 _ZNK18QThreadStorageData3getEv
 _ZTS7QThread
 _ZNK7QStringltERKS_
 _ZN10QTextCodec6localeEv
 _ZN8QProcess15setProcessStateENS_12ProcessStateE
 _ZNK5QTime6minuteEv
 _ZTI11QTextStream
 _ZN4QUrl7setPathERK7QString
 _ZNK5QChar6isMarkEv
 _ZN10QMutexPool17globalInstanceGetEPKv
 _ZNK7QLocale10timeFormatENS_10FormatTypeE
 _ZN10QByteArray6numberExi
 _ZNK11QDataStream5atEndEv
 _ZN16QCoreApplication9loopLevelEv
 _ZrsR11QDataStreamR7QPointF
 _ZN25QAbstractItemModelPrivate5resetEv
 _ZNK7QLocale7toFloatERK7QStringPb
 _ZN9QIODevice8readLineEx
 _ZNK8QVariant6toUIntEPb
 _ZN19QAbstractFileEngineC2ER26QAbstractFileEnginePrivate
 _ZN9QListData6appendERKS_
 _ZN5QTime11currentTimeEv
 _ZNK18QAbstractItemModel12canFetchMoreERK11QModelIndex
 _ZN10QByteArray6setNumEdci
 _ZN8QProcess14setEnvironmentERK11QStringList
 _ZN12QDirIteratorC2ERK7QStringRK11QStringList6QFlagsIN4QDir6FilterEES6_INS_12IteratorFlagEE
 _ZN19QAbstractTableModelC1EP7QObject
 _ZN16QSegfaultHandler10initializeEPPci
 _ZNK27QAbstractFileEngineIterator11nameFiltersEv
 _ZN8QVariantC2ERK6QRectF
 _ZNK14QMetaClassInfo4nameEv
 _ZrsR11QDataStreamR10QByteArray
 _ZNK5QTime8toStringERK7QString
 _ZNK18QAbstractItemModel5flagsERK11QModelIndex
 _ZN18QAbstractItemModel6revertEv
 _ZN8QVariantC2ENS_4TypeE
 _ZeqRK13QLatin1StringRK10QStringRef
 _ZN9QSettings14registerFormatERK7QStringPFbR9QIODeviceR4QMapIS0_8QVariantEEPFbS4_RKS7_EN2Qt15CaseSensitivityE
 _ZN5QFile19setDecodingFunctionEPF7QStringRK10QByteArrayE
 _Zls6QDebugN8QVariant4TypeE
 _ZN5QChar8categoryEj
 _Zls6QDebugRK5QTime
 _ZN8QVariantC1ERK5QLine
 _ZN25QAbstractItemModelPrivate24columnsAboutToBeInsertedERK11QModelIndexii
 _ZN11QTimerEventD2Ev
 _ZN11QDataStreamD0Ev
 _ZN9QTimeLine12setDirectionENS_9DirectionE
 _ZN21QPersistentModelIndexC2Ev
 _ZN8QVariant6createEiPKv
 _ZN14QWaitConditionD1Ev
 _ZN10QByteArray6numberEyi
 _ZN7QString4chopEi
 _ZN9QInternal16registerCallbackENS_8CallbackEPFbPPvE
 _ZN9QTimeLineC1EiP7QObject
 _ZNK4QUrl7isEmptyEv
 _ZN5QChar8categoryEt
 _ZN9QListData6removeEi
 _ZTI5QFile
 _ZNK13QFSFileEngine4sizeEv
 _ZN9QSettingsD1Ev
 _ZN14QReadWriteLockC2Ev
 _ZN4QDir9setFilterE6QFlagsINS_6FilterEE
 _ZN8QLibraryD0Ev
